target datalayout = "e-p:32:32-i64:64-v128:32:128-n32-S128"
target triple = "asmjs-unknown-emscripten"

@_ZTVSt9bad_alloc = external constant { [5 x i8*] }
define i8* @_WP_ZTVSt9bad_alloc() unnamed_addr {
entry:
  %ptr = bitcast { [5 x i8*] }* @_ZTVSt9bad_alloc to i8*
  ret i8* %ptr
}

@_ZTISt9bad_alloc = external constant { i8*, i8*, i8* }
define i8* @_WP_ZTISt9bad_alloc() unnamed_addr {
entry:
  %ptr = bitcast { i8*, i8*, i8* }* @_ZTISt9bad_alloc to i8*
  ret i8* %ptr
}

@_ZTSSt9bad_alloc = external constant [13 x i8]
define i8* @_WP_ZTSSt9bad_alloc() unnamed_addr {
entry:
  %ptr = bitcast [13 x i8]* @_ZTSSt9bad_alloc to i8*
  ret i8* %ptr
}

@_ZTVSt20bad_array_new_length = external constant { [5 x i8*] }
define i8* @_WP_ZTVSt20bad_array_new_length() unnamed_addr {
entry:
  %ptr = bitcast { [5 x i8*] }* @_ZTVSt20bad_array_new_length to i8*
  ret i8* %ptr
}

@_ZTISt20bad_array_new_length = external constant { i8*, i8*, i8* }
define i8* @_WP_ZTISt20bad_array_new_length() unnamed_addr {
entry:
  %ptr = bitcast { i8*, i8*, i8* }* @_ZTISt20bad_array_new_length to i8*
  ret i8* %ptr
}

@_ZTSSt20bad_array_new_length = external constant [25 x i8]
define i8* @_WP_ZTSSt20bad_array_new_length() unnamed_addr {
entry:
  %ptr = bitcast [25 x i8]* @_ZTSSt20bad_array_new_length to i8*
  ret i8* %ptr
}

@_ZTVSt16bad_array_length = external constant { [5 x i8*] }
define i8* @_WP_ZTVSt16bad_array_length() unnamed_addr {
entry:
  %ptr = bitcast { [5 x i8*] }* @_ZTVSt16bad_array_length to i8*
  ret i8* %ptr
}

@_ZTISt16bad_array_length = external constant { i8*, i8*, i8* }
define i8* @_WP_ZTISt16bad_array_length() unnamed_addr {
entry:
  %ptr = bitcast { i8*, i8*, i8* }* @_ZTISt16bad_array_length to i8*
  ret i8* %ptr
}

@_ZTSSt16bad_array_length = external constant [21 x i8]
define i8* @_WP_ZTSSt16bad_array_length() unnamed_addr {
entry:
  %ptr = bitcast [21 x i8]* @_ZTSSt16bad_array_length to i8*
  ret i8* %ptr
}

@_ZTVSt9exception = external constant { [5 x i8*] }
define i8* @_WP_ZTVSt9exception() unnamed_addr {
entry:
  %ptr = bitcast { [5 x i8*] }* @_ZTVSt9exception to i8*
  ret i8* %ptr
}

@_ZTISt9exception = external constant { i8*, i8* }
define i8* @_WP_ZTISt9exception() unnamed_addr {
entry:
  %ptr = bitcast { i8*, i8* }* @_ZTISt9exception to i8*
  ret i8* %ptr
}

@_ZTSSt9exception = external constant [13 x i8]
define i8* @_WP_ZTSSt9exception() unnamed_addr {
entry:
  %ptr = bitcast [13 x i8]* @_ZTSSt9exception to i8*
  ret i8* %ptr
}

@_ZTVSt13bad_exception = external constant { [5 x i8*] }
define i8* @_WP_ZTVSt13bad_exception() unnamed_addr {
entry:
  %ptr = bitcast { [5 x i8*] }* @_ZTVSt13bad_exception to i8*
  ret i8* %ptr
}

@_ZTISt13bad_exception = external constant { i8*, i8*, i8* }
define i8* @_WP_ZTISt13bad_exception() unnamed_addr {
entry:
  %ptr = bitcast { i8*, i8*, i8* }* @_ZTISt13bad_exception to i8*
  ret i8* %ptr
}

@_ZTSSt13bad_exception = external constant [18 x i8]
define i8* @_WP_ZTSSt13bad_exception() unnamed_addr {
entry:
  %ptr = bitcast [18 x i8]* @_ZTSSt13bad_exception to i8*
  ret i8* %ptr
}

@_ZTVSt11logic_error = external constant { [5 x i8*] }
define i8* @_WP_ZTVSt11logic_error() unnamed_addr {
entry:
  %ptr = bitcast { [5 x i8*] }* @_ZTVSt11logic_error to i8*
  ret i8* %ptr
}

@_ZTISt11logic_error = external constant { i8*, i8*, i8* }
define i8* @_WP_ZTISt11logic_error() unnamed_addr {
entry:
  %ptr = bitcast { i8*, i8*, i8* }* @_ZTISt11logic_error to i8*
  ret i8* %ptr
}

@_ZTSSt11logic_error = external constant [16 x i8]
define i8* @_WP_ZTSSt11logic_error() unnamed_addr {
entry:
  %ptr = bitcast [16 x i8]* @_ZTSSt11logic_error to i8*
  ret i8* %ptr
}

@_ZTVSt13runtime_error = external constant { [5 x i8*] }
define i8* @_WP_ZTVSt13runtime_error() unnamed_addr {
entry:
  %ptr = bitcast { [5 x i8*] }* @_ZTVSt13runtime_error to i8*
  ret i8* %ptr
}

@_ZTISt13runtime_error = external constant { i8*, i8*, i8* }
define i8* @_WP_ZTISt13runtime_error() unnamed_addr {
entry:
  %ptr = bitcast { i8*, i8*, i8* }* @_ZTISt13runtime_error to i8*
  ret i8* %ptr
}

@_ZTSSt13runtime_error = external constant [18 x i8]
define i8* @_WP_ZTSSt13runtime_error() unnamed_addr {
entry:
  %ptr = bitcast [18 x i8]* @_ZTSSt13runtime_error to i8*
  ret i8* %ptr
}

@_ZTVSt12domain_error = external constant { [5 x i8*] }
define i8* @_WP_ZTVSt12domain_error() unnamed_addr {
entry:
  %ptr = bitcast { [5 x i8*] }* @_ZTVSt12domain_error to i8*
  ret i8* %ptr
}

@_ZTISt12domain_error = external constant { i8*, i8*, i8* }
define i8* @_WP_ZTISt12domain_error() unnamed_addr {
entry:
  %ptr = bitcast { i8*, i8*, i8* }* @_ZTISt12domain_error to i8*
  ret i8* %ptr
}

@_ZTSSt12domain_error = external constant [17 x i8]
define i8* @_WP_ZTSSt12domain_error() unnamed_addr {
entry:
  %ptr = bitcast [17 x i8]* @_ZTSSt12domain_error to i8*
  ret i8* %ptr
}

@_ZTVSt16invalid_argument = external constant { [5 x i8*] }
define i8* @_WP_ZTVSt16invalid_argument() unnamed_addr {
entry:
  %ptr = bitcast { [5 x i8*] }* @_ZTVSt16invalid_argument to i8*
  ret i8* %ptr
}

@_ZTISt16invalid_argument = external constant { i8*, i8*, i8* }
define i8* @_WP_ZTISt16invalid_argument() unnamed_addr {
entry:
  %ptr = bitcast { i8*, i8*, i8* }* @_ZTISt16invalid_argument to i8*
  ret i8* %ptr
}

@_ZTSSt16invalid_argument = external constant [21 x i8]
define i8* @_WP_ZTSSt16invalid_argument() unnamed_addr {
entry:
  %ptr = bitcast [21 x i8]* @_ZTSSt16invalid_argument to i8*
  ret i8* %ptr
}

@_ZTVSt12length_error = external constant { [5 x i8*] }
define i8* @_WP_ZTVSt12length_error() unnamed_addr {
entry:
  %ptr = bitcast { [5 x i8*] }* @_ZTVSt12length_error to i8*
  ret i8* %ptr
}

@_ZTISt12length_error = external constant { i8*, i8*, i8* }
define i8* @_WP_ZTISt12length_error() unnamed_addr {
entry:
  %ptr = bitcast { i8*, i8*, i8* }* @_ZTISt12length_error to i8*
  ret i8* %ptr
}

@_ZTSSt12length_error = external constant [17 x i8]
define i8* @_WP_ZTSSt12length_error() unnamed_addr {
entry:
  %ptr = bitcast [17 x i8]* @_ZTSSt12length_error to i8*
  ret i8* %ptr
}

@_ZTVSt12out_of_range = external constant { [5 x i8*] }
define i8* @_WP_ZTVSt12out_of_range() unnamed_addr {
entry:
  %ptr = bitcast { [5 x i8*] }* @_ZTVSt12out_of_range to i8*
  ret i8* %ptr
}

@_ZTISt12out_of_range = external constant { i8*, i8*, i8* }
define i8* @_WP_ZTISt12out_of_range() unnamed_addr {
entry:
  %ptr = bitcast { i8*, i8*, i8* }* @_ZTISt12out_of_range to i8*
  ret i8* %ptr
}

@_ZTSSt12out_of_range = external constant [17 x i8]
define i8* @_WP_ZTSSt12out_of_range() unnamed_addr {
entry:
  %ptr = bitcast [17 x i8]* @_ZTSSt12out_of_range to i8*
  ret i8* %ptr
}

@_ZTVSt11range_error = external constant { [5 x i8*] }
define i8* @_WP_ZTVSt11range_error() unnamed_addr {
entry:
  %ptr = bitcast { [5 x i8*] }* @_ZTVSt11range_error to i8*
  ret i8* %ptr
}

@_ZTISt11range_error = external constant { i8*, i8*, i8* }
define i8* @_WP_ZTISt11range_error() unnamed_addr {
entry:
  %ptr = bitcast { i8*, i8*, i8* }* @_ZTISt11range_error to i8*
  ret i8* %ptr
}

@_ZTSSt11range_error = external constant [16 x i8]
define i8* @_WP_ZTSSt11range_error() unnamed_addr {
entry:
  %ptr = bitcast [16 x i8]* @_ZTSSt11range_error to i8*
  ret i8* %ptr
}

@_ZTVSt14overflow_error = external constant { [5 x i8*] }
define i8* @_WP_ZTVSt14overflow_error() unnamed_addr {
entry:
  %ptr = bitcast { [5 x i8*] }* @_ZTVSt14overflow_error to i8*
  ret i8* %ptr
}

@_ZTISt14overflow_error = external constant { i8*, i8*, i8* }
define i8* @_WP_ZTISt14overflow_error() unnamed_addr {
entry:
  %ptr = bitcast { i8*, i8*, i8* }* @_ZTISt14overflow_error to i8*
  ret i8* %ptr
}

@_ZTSSt14overflow_error = external constant [19 x i8]
define i8* @_WP_ZTSSt14overflow_error() unnamed_addr {
entry:
  %ptr = bitcast [19 x i8]* @_ZTSSt14overflow_error to i8*
  ret i8* %ptr
}

@_ZTVSt15underflow_error = external constant { [5 x i8*] }
define i8* @_WP_ZTVSt15underflow_error() unnamed_addr {
entry:
  %ptr = bitcast { [5 x i8*] }* @_ZTVSt15underflow_error to i8*
  ret i8* %ptr
}

@_ZTISt15underflow_error = external constant { i8*, i8*, i8* }
define i8* @_WP_ZTISt15underflow_error() unnamed_addr {
entry:
  %ptr = bitcast { i8*, i8*, i8* }* @_ZTISt15underflow_error to i8*
  ret i8* %ptr
}

@_ZTSSt15underflow_error = external constant [20 x i8]
define i8* @_WP_ZTSSt15underflow_error() unnamed_addr {
entry:
  %ptr = bitcast [20 x i8]* @_ZTSSt15underflow_error to i8*
  ret i8* %ptr
}

@_ZTVSt8bad_cast = external constant { [5 x i8*] }
define i8* @_WP_ZTVSt8bad_cast() unnamed_addr {
entry:
  %ptr = bitcast { [5 x i8*] }* @_ZTVSt8bad_cast to i8*
  ret i8* %ptr
}

@_ZTISt8bad_cast = external constant { i8*, i8*, i8* }
define i8* @_WP_ZTISt8bad_cast() unnamed_addr {
entry:
  %ptr = bitcast { i8*, i8*, i8* }* @_ZTISt8bad_cast to i8*
  ret i8* %ptr
}

@_ZTSSt8bad_cast = external constant [12 x i8]
define i8* @_WP_ZTSSt8bad_cast() unnamed_addr {
entry:
  %ptr = bitcast [12 x i8]* @_ZTSSt8bad_cast to i8*
  ret i8* %ptr
}

@_ZTVSt10bad_typeid = external constant { [5 x i8*] }
define i8* @_WP_ZTVSt10bad_typeid() unnamed_addr {
entry:
  %ptr = bitcast { [5 x i8*] }* @_ZTVSt10bad_typeid to i8*
  ret i8* %ptr
}

@_ZTISt10bad_typeid = external constant { i8*, i8*, i8* }
define i8* @_WP_ZTISt10bad_typeid() unnamed_addr {
entry:
  %ptr = bitcast { i8*, i8*, i8* }* @_ZTISt10bad_typeid to i8*
  ret i8* %ptr
}

@_ZTSSt10bad_typeid = external constant [15 x i8]
define i8* @_WP_ZTSSt10bad_typeid() unnamed_addr {
entry:
  %ptr = bitcast [15 x i8]* @_ZTSSt10bad_typeid to i8*
  ret i8* %ptr
}

@_ZTVSt9type_info = external constant { [4 x i8*] }
define i8* @_WP_ZTVSt9type_info() unnamed_addr {
entry:
  %ptr = bitcast { [4 x i8*] }* @_ZTVSt9type_info to i8*
  ret i8* %ptr
}

@_ZTISt9type_info = external constant { i8*, i8* }
define i8* @_WP_ZTISt9type_info() unnamed_addr {
entry:
  %ptr = bitcast { i8*, i8* }* @_ZTISt9type_info to i8*
  ret i8* %ptr
}

@_ZTSSt9type_info = external constant [13 x i8]
define i8* @_WP_ZTSSt9type_info() unnamed_addr {
entry:
  %ptr = bitcast [13 x i8]* @_ZTSSt9type_info to i8*
  ret i8* %ptr
}

@_ZTSN10__cxxabiv116__shim_type_infoE = external constant [33 x i8]
define i8* @_WP_ZTSN10__cxxabiv116__shim_type_infoE() unnamed_addr {
entry:
  %ptr = bitcast [33 x i8]* @_ZTSN10__cxxabiv116__shim_type_infoE to i8*
  ret i8* %ptr
}

@_ZTIN10__cxxabiv116__shim_type_infoE = external constant { i8*, i8*, i8* }
define i8* @_WP_ZTIN10__cxxabiv116__shim_type_infoE() unnamed_addr {
entry:
  %ptr = bitcast { i8*, i8*, i8* }* @_ZTIN10__cxxabiv116__shim_type_infoE to i8*
  ret i8* %ptr
}

@_ZTVN10__cxxabiv120__si_class_type_infoE = external constant { [10 x i8*] }
define i8* @_WP_ZTVN10__cxxabiv120__si_class_type_infoE() unnamed_addr {
entry:
  %ptr = bitcast { [10 x i8*] }* @_ZTVN10__cxxabiv120__si_class_type_infoE to i8*
  ret i8* %ptr
}

@_ZTIN10__cxxabiv120__si_class_type_infoE = external constant { i8*, i8*, i8* }
define i8* @_WP_ZTIN10__cxxabiv120__si_class_type_infoE() unnamed_addr {
entry:
  %ptr = bitcast { i8*, i8*, i8* }* @_ZTIN10__cxxabiv120__si_class_type_infoE to i8*
  ret i8* %ptr
}

@_ZTIN10__cxxabiv117__class_type_infoE = external constant { i8*, i8*, i8* }
define i8* @_WP_ZTIN10__cxxabiv117__class_type_infoE() unnamed_addr {
entry:
  %ptr = bitcast { i8*, i8*, i8* }* @_ZTIN10__cxxabiv117__class_type_infoE to i8*
  ret i8* %ptr
}

@_ZTSN10__cxxabiv117__class_type_infoE = external constant [34 x i8]
define i8* @_WP_ZTSN10__cxxabiv117__class_type_infoE() unnamed_addr {
entry:
  %ptr = bitcast [34 x i8]* @_ZTSN10__cxxabiv117__class_type_infoE to i8*
  ret i8* %ptr
}

@_ZTSN10__cxxabiv120__si_class_type_infoE = external constant [37 x i8]
define i8* @_WP_ZTSN10__cxxabiv120__si_class_type_infoE() unnamed_addr {
entry:
  %ptr = bitcast [37 x i8]* @_ZTSN10__cxxabiv120__si_class_type_infoE to i8*
  ret i8* %ptr
}

@_ZTSN10__cxxabiv119__pointer_type_infoE = external constant [36 x i8]
define i8* @_WP_ZTSN10__cxxabiv119__pointer_type_infoE() unnamed_addr {
entry:
  %ptr = bitcast [36 x i8]* @_ZTSN10__cxxabiv119__pointer_type_infoE to i8*
  ret i8* %ptr
}

@_ZTSN10__cxxabiv117__pbase_type_infoE = external constant [34 x i8]
define i8* @_WP_ZTSN10__cxxabiv117__pbase_type_infoE() unnamed_addr {
entry:
  %ptr = bitcast [34 x i8]* @_ZTSN10__cxxabiv117__pbase_type_infoE to i8*
  ret i8* %ptr
}

@_ZTIN10__cxxabiv117__pbase_type_infoE = external constant { i8*, i8*, i8* }
define i8* @_WP_ZTIN10__cxxabiv117__pbase_type_infoE() unnamed_addr {
entry:
  %ptr = bitcast { i8*, i8*, i8* }* @_ZTIN10__cxxabiv117__pbase_type_infoE to i8*
  ret i8* %ptr
}

@_ZTIN10__cxxabiv119__pointer_type_infoE = external constant { i8*, i8*, i8* }
define i8* @_WP_ZTIN10__cxxabiv119__pointer_type_infoE() unnamed_addr {
entry:
  %ptr = bitcast { i8*, i8*, i8* }* @_ZTIN10__cxxabiv119__pointer_type_infoE to i8*
  ret i8* %ptr
}

@_ZTVN10__cxxabiv116__shim_type_infoE = external constant { [7 x i8*] }
define i8* @_WP_ZTVN10__cxxabiv116__shim_type_infoE() unnamed_addr {
entry:
  %ptr = bitcast { [7 x i8*] }* @_ZTVN10__cxxabiv116__shim_type_infoE to i8*
  ret i8* %ptr
}

@_ZTVN10__cxxabiv123__fundamental_type_infoE = external constant { [7 x i8*] }
define i8* @_WP_ZTVN10__cxxabiv123__fundamental_type_infoE() unnamed_addr {
entry:
  %ptr = bitcast { [7 x i8*] }* @_ZTVN10__cxxabiv123__fundamental_type_infoE to i8*
  ret i8* %ptr
}

@_ZTIN10__cxxabiv123__fundamental_type_infoE = external constant { i8*, i8*, i8* }
define i8* @_WP_ZTIN10__cxxabiv123__fundamental_type_infoE() unnamed_addr {
entry:
  %ptr = bitcast { i8*, i8*, i8* }* @_ZTIN10__cxxabiv123__fundamental_type_infoE to i8*
  ret i8* %ptr
}

@_ZTSN10__cxxabiv123__fundamental_type_infoE = external constant [40 x i8]
define i8* @_WP_ZTSN10__cxxabiv123__fundamental_type_infoE() unnamed_addr {
entry:
  %ptr = bitcast [40 x i8]* @_ZTSN10__cxxabiv123__fundamental_type_infoE to i8*
  ret i8* %ptr
}

@_ZTSv = external constant [2 x i8]
define i8* @_WP_ZTSv() unnamed_addr {
entry:
  %ptr = bitcast [2 x i8]* @_ZTSv to i8*
  ret i8* %ptr
}

@_ZTIv = external constant { i8*, i8* }
define i8* @_WP_ZTIv() unnamed_addr {
entry:
  %ptr = bitcast { i8*, i8* }* @_ZTIv to i8*
  ret i8* %ptr
}

@_ZTSPv = external constant [3 x i8]
define i8* @_WP_ZTSPv() unnamed_addr {
entry:
  %ptr = bitcast [3 x i8]* @_ZTSPv to i8*
  ret i8* %ptr
}

@_ZTVN10__cxxabiv119__pointer_type_infoE = external constant { [7 x i8*] }
define i8* @_WP_ZTVN10__cxxabiv119__pointer_type_infoE() unnamed_addr {
entry:
  %ptr = bitcast { [7 x i8*] }* @_ZTVN10__cxxabiv119__pointer_type_infoE to i8*
  ret i8* %ptr
}

@_ZTIDn = external constant { i8*, i8* }
define i8* @_WP_ZTIDn() unnamed_addr {
entry:
  %ptr = bitcast { i8*, i8* }* @_ZTIDn to i8*
  ret i8* %ptr
}

@_ZTSDn = external constant [3 x i8]
define i8* @_WP_ZTSDn() unnamed_addr {
entry:
  %ptr = bitcast [3 x i8]* @_ZTSDn to i8*
  ret i8* %ptr
}

@_ZTSPKv = external constant [4 x i8]
define i8* @_WP_ZTSPKv() unnamed_addr {
entry:
  %ptr = bitcast [4 x i8]* @_ZTSPKv to i8*
  ret i8* %ptr
}

@_ZTSPDn = external constant [4 x i8]
define i8* @_WP_ZTSPDn() unnamed_addr {
entry:
  %ptr = bitcast [4 x i8]* @_ZTSPDn to i8*
  ret i8* %ptr
}

@_ZTSPKDn = external constant [5 x i8]
define i8* @_WP_ZTSPKDn() unnamed_addr {
entry:
  %ptr = bitcast [5 x i8]* @_ZTSPKDn to i8*
  ret i8* %ptr
}

@_ZTSb = external constant [2 x i8]
define i8* @_WP_ZTSb() unnamed_addr {
entry:
  %ptr = bitcast [2 x i8]* @_ZTSb to i8*
  ret i8* %ptr
}

@_ZTIb = external constant { i8*, i8* }
define i8* @_WP_ZTIb() unnamed_addr {
entry:
  %ptr = bitcast { i8*, i8* }* @_ZTIb to i8*
  ret i8* %ptr
}

@_ZTSPb = external constant [3 x i8]
define i8* @_WP_ZTSPb() unnamed_addr {
entry:
  %ptr = bitcast [3 x i8]* @_ZTSPb to i8*
  ret i8* %ptr
}

@_ZTSPKb = external constant [4 x i8]
define i8* @_WP_ZTSPKb() unnamed_addr {
entry:
  %ptr = bitcast [4 x i8]* @_ZTSPKb to i8*
  ret i8* %ptr
}

@_ZTSw = external constant [2 x i8]
define i8* @_WP_ZTSw() unnamed_addr {
entry:
  %ptr = bitcast [2 x i8]* @_ZTSw to i8*
  ret i8* %ptr
}

@_ZTIw = external constant { i8*, i8* }
define i8* @_WP_ZTIw() unnamed_addr {
entry:
  %ptr = bitcast { i8*, i8* }* @_ZTIw to i8*
  ret i8* %ptr
}

@_ZTSPw = external constant [3 x i8]
define i8* @_WP_ZTSPw() unnamed_addr {
entry:
  %ptr = bitcast [3 x i8]* @_ZTSPw to i8*
  ret i8* %ptr
}

@_ZTSPKw = external constant [4 x i8]
define i8* @_WP_ZTSPKw() unnamed_addr {
entry:
  %ptr = bitcast [4 x i8]* @_ZTSPKw to i8*
  ret i8* %ptr
}

@_ZTSc = external constant [2 x i8]
define i8* @_WP_ZTSc() unnamed_addr {
entry:
  %ptr = bitcast [2 x i8]* @_ZTSc to i8*
  ret i8* %ptr
}

@_ZTIc = external constant { i8*, i8* }
define i8* @_WP_ZTIc() unnamed_addr {
entry:
  %ptr = bitcast { i8*, i8* }* @_ZTIc to i8*
  ret i8* %ptr
}

@_ZTSPc = external constant [3 x i8]
define i8* @_WP_ZTSPc() unnamed_addr {
entry:
  %ptr = bitcast [3 x i8]* @_ZTSPc to i8*
  ret i8* %ptr
}

@_ZTSPKc = external constant [4 x i8]
define i8* @_WP_ZTSPKc() unnamed_addr {
entry:
  %ptr = bitcast [4 x i8]* @_ZTSPKc to i8*
  ret i8* %ptr
}

@_ZTSh = external constant [2 x i8]
define i8* @_WP_ZTSh() unnamed_addr {
entry:
  %ptr = bitcast [2 x i8]* @_ZTSh to i8*
  ret i8* %ptr
}

@_ZTIh = external constant { i8*, i8* }
define i8* @_WP_ZTIh() unnamed_addr {
entry:
  %ptr = bitcast { i8*, i8* }* @_ZTIh to i8*
  ret i8* %ptr
}

@_ZTSPh = external constant [3 x i8]
define i8* @_WP_ZTSPh() unnamed_addr {
entry:
  %ptr = bitcast [3 x i8]* @_ZTSPh to i8*
  ret i8* %ptr
}

@_ZTSPKh = external constant [4 x i8]
define i8* @_WP_ZTSPKh() unnamed_addr {
entry:
  %ptr = bitcast [4 x i8]* @_ZTSPKh to i8*
  ret i8* %ptr
}

@_ZTSa = external constant [2 x i8]
define i8* @_WP_ZTSa() unnamed_addr {
entry:
  %ptr = bitcast [2 x i8]* @_ZTSa to i8*
  ret i8* %ptr
}

@_ZTIa = external constant { i8*, i8* }
define i8* @_WP_ZTIa() unnamed_addr {
entry:
  %ptr = bitcast { i8*, i8* }* @_ZTIa to i8*
  ret i8* %ptr
}

@_ZTSPa = external constant [3 x i8]
define i8* @_WP_ZTSPa() unnamed_addr {
entry:
  %ptr = bitcast [3 x i8]* @_ZTSPa to i8*
  ret i8* %ptr
}

@_ZTSPKa = external constant [4 x i8]
define i8* @_WP_ZTSPKa() unnamed_addr {
entry:
  %ptr = bitcast [4 x i8]* @_ZTSPKa to i8*
  ret i8* %ptr
}

@_ZTSs = external constant [2 x i8]
define i8* @_WP_ZTSs() unnamed_addr {
entry:
  %ptr = bitcast [2 x i8]* @_ZTSs to i8*
  ret i8* %ptr
}

@_ZTIs = external constant { i8*, i8* }
define i8* @_WP_ZTIs() unnamed_addr {
entry:
  %ptr = bitcast { i8*, i8* }* @_ZTIs to i8*
  ret i8* %ptr
}

@_ZTSPs = external constant [3 x i8]
define i8* @_WP_ZTSPs() unnamed_addr {
entry:
  %ptr = bitcast [3 x i8]* @_ZTSPs to i8*
  ret i8* %ptr
}

@_ZTSPKs = external constant [4 x i8]
define i8* @_WP_ZTSPKs() unnamed_addr {
entry:
  %ptr = bitcast [4 x i8]* @_ZTSPKs to i8*
  ret i8* %ptr
}

@_ZTSt = external constant [2 x i8]
define i8* @_WP_ZTSt() unnamed_addr {
entry:
  %ptr = bitcast [2 x i8]* @_ZTSt to i8*
  ret i8* %ptr
}

@_ZTIt = external constant { i8*, i8* }
define i8* @_WP_ZTIt() unnamed_addr {
entry:
  %ptr = bitcast { i8*, i8* }* @_ZTIt to i8*
  ret i8* %ptr
}

@_ZTSPt = external constant [3 x i8]
define i8* @_WP_ZTSPt() unnamed_addr {
entry:
  %ptr = bitcast [3 x i8]* @_ZTSPt to i8*
  ret i8* %ptr
}

@_ZTSPKt = external constant [4 x i8]
define i8* @_WP_ZTSPKt() unnamed_addr {
entry:
  %ptr = bitcast [4 x i8]* @_ZTSPKt to i8*
  ret i8* %ptr
}

@_ZTSi = external constant [2 x i8]
define i8* @_WP_ZTSi() unnamed_addr {
entry:
  %ptr = bitcast [2 x i8]* @_ZTSi to i8*
  ret i8* %ptr
}

@_ZTIi = external constant { i8*, i8* }
define i8* @_WP_ZTIi() unnamed_addr {
entry:
  %ptr = bitcast { i8*, i8* }* @_ZTIi to i8*
  ret i8* %ptr
}

@_ZTSPi = external constant [3 x i8]
define i8* @_WP_ZTSPi() unnamed_addr {
entry:
  %ptr = bitcast [3 x i8]* @_ZTSPi to i8*
  ret i8* %ptr
}

@_ZTSPKi = external constant [4 x i8]
define i8* @_WP_ZTSPKi() unnamed_addr {
entry:
  %ptr = bitcast [4 x i8]* @_ZTSPKi to i8*
  ret i8* %ptr
}

@_ZTSj = external constant [2 x i8]
define i8* @_WP_ZTSj() unnamed_addr {
entry:
  %ptr = bitcast [2 x i8]* @_ZTSj to i8*
  ret i8* %ptr
}

@_ZTIj = external constant { i8*, i8* }
define i8* @_WP_ZTIj() unnamed_addr {
entry:
  %ptr = bitcast { i8*, i8* }* @_ZTIj to i8*
  ret i8* %ptr
}

@_ZTSPj = external constant [3 x i8]
define i8* @_WP_ZTSPj() unnamed_addr {
entry:
  %ptr = bitcast [3 x i8]* @_ZTSPj to i8*
  ret i8* %ptr
}

@_ZTSPKj = external constant [4 x i8]
define i8* @_WP_ZTSPKj() unnamed_addr {
entry:
  %ptr = bitcast [4 x i8]* @_ZTSPKj to i8*
  ret i8* %ptr
}

@_ZTSl = external constant [2 x i8]
define i8* @_WP_ZTSl() unnamed_addr {
entry:
  %ptr = bitcast [2 x i8]* @_ZTSl to i8*
  ret i8* %ptr
}

@_ZTIl = external constant { i8*, i8* }
define i8* @_WP_ZTIl() unnamed_addr {
entry:
  %ptr = bitcast { i8*, i8* }* @_ZTIl to i8*
  ret i8* %ptr
}

@_ZTSPl = external constant [3 x i8]
define i8* @_WP_ZTSPl() unnamed_addr {
entry:
  %ptr = bitcast [3 x i8]* @_ZTSPl to i8*
  ret i8* %ptr
}

@_ZTSPKl = external constant [4 x i8]
define i8* @_WP_ZTSPKl() unnamed_addr {
entry:
  %ptr = bitcast [4 x i8]* @_ZTSPKl to i8*
  ret i8* %ptr
}

@_ZTSm = external constant [2 x i8]
define i8* @_WP_ZTSm() unnamed_addr {
entry:
  %ptr = bitcast [2 x i8]* @_ZTSm to i8*
  ret i8* %ptr
}

@_ZTIm = external constant { i8*, i8* }
define i8* @_WP_ZTIm() unnamed_addr {
entry:
  %ptr = bitcast { i8*, i8* }* @_ZTIm to i8*
  ret i8* %ptr
}

@_ZTSPm = external constant [3 x i8]
define i8* @_WP_ZTSPm() unnamed_addr {
entry:
  %ptr = bitcast [3 x i8]* @_ZTSPm to i8*
  ret i8* %ptr
}

@_ZTSPKm = external constant [4 x i8]
define i8* @_WP_ZTSPKm() unnamed_addr {
entry:
  %ptr = bitcast [4 x i8]* @_ZTSPKm to i8*
  ret i8* %ptr
}

@_ZTSx = external constant [2 x i8]
define i8* @_WP_ZTSx() unnamed_addr {
entry:
  %ptr = bitcast [2 x i8]* @_ZTSx to i8*
  ret i8* %ptr
}

@_ZTIx = external constant { i8*, i8* }
define i8* @_WP_ZTIx() unnamed_addr {
entry:
  %ptr = bitcast { i8*, i8* }* @_ZTIx to i8*
  ret i8* %ptr
}

@_ZTSPx = external constant [3 x i8]
define i8* @_WP_ZTSPx() unnamed_addr {
entry:
  %ptr = bitcast [3 x i8]* @_ZTSPx to i8*
  ret i8* %ptr
}

@_ZTSPKx = external constant [4 x i8]
define i8* @_WP_ZTSPKx() unnamed_addr {
entry:
  %ptr = bitcast [4 x i8]* @_ZTSPKx to i8*
  ret i8* %ptr
}

@_ZTSy = external constant [2 x i8]
define i8* @_WP_ZTSy() unnamed_addr {
entry:
  %ptr = bitcast [2 x i8]* @_ZTSy to i8*
  ret i8* %ptr
}

@_ZTIy = external constant { i8*, i8* }
define i8* @_WP_ZTIy() unnamed_addr {
entry:
  %ptr = bitcast { i8*, i8* }* @_ZTIy to i8*
  ret i8* %ptr
}

@_ZTSPy = external constant [3 x i8]
define i8* @_WP_ZTSPy() unnamed_addr {
entry:
  %ptr = bitcast [3 x i8]* @_ZTSPy to i8*
  ret i8* %ptr
}

@_ZTSPKy = external constant [4 x i8]
define i8* @_WP_ZTSPKy() unnamed_addr {
entry:
  %ptr = bitcast [4 x i8]* @_ZTSPKy to i8*
  ret i8* %ptr
}

@_ZTSn = external constant [2 x i8]
define i8* @_WP_ZTSn() unnamed_addr {
entry:
  %ptr = bitcast [2 x i8]* @_ZTSn to i8*
  ret i8* %ptr
}

@_ZTIn = external constant { i8*, i8* }
define i8* @_WP_ZTIn() unnamed_addr {
entry:
  %ptr = bitcast { i8*, i8* }* @_ZTIn to i8*
  ret i8* %ptr
}

@_ZTSPn = external constant [3 x i8]
define i8* @_WP_ZTSPn() unnamed_addr {
entry:
  %ptr = bitcast [3 x i8]* @_ZTSPn to i8*
  ret i8* %ptr
}

@_ZTSPKn = external constant [4 x i8]
define i8* @_WP_ZTSPKn() unnamed_addr {
entry:
  %ptr = bitcast [4 x i8]* @_ZTSPKn to i8*
  ret i8* %ptr
}

@_ZTSo = external constant [2 x i8]
define i8* @_WP_ZTSo() unnamed_addr {
entry:
  %ptr = bitcast [2 x i8]* @_ZTSo to i8*
  ret i8* %ptr
}

@_ZTIo = external constant { i8*, i8* }
define i8* @_WP_ZTIo() unnamed_addr {
entry:
  %ptr = bitcast { i8*, i8* }* @_ZTIo to i8*
  ret i8* %ptr
}

@_ZTSPo = external constant [3 x i8]
define i8* @_WP_ZTSPo() unnamed_addr {
entry:
  %ptr = bitcast [3 x i8]* @_ZTSPo to i8*
  ret i8* %ptr
}

@_ZTSPKo = external constant [4 x i8]
define i8* @_WP_ZTSPKo() unnamed_addr {
entry:
  %ptr = bitcast [4 x i8]* @_ZTSPKo to i8*
  ret i8* %ptr
}

@_ZTSDh = external constant [3 x i8]
define i8* @_WP_ZTSDh() unnamed_addr {
entry:
  %ptr = bitcast [3 x i8]* @_ZTSDh to i8*
  ret i8* %ptr
}

@_ZTIDh = external constant { i8*, i8* }
define i8* @_WP_ZTIDh() unnamed_addr {
entry:
  %ptr = bitcast { i8*, i8* }* @_ZTIDh to i8*
  ret i8* %ptr
}

@_ZTSPDh = external constant [4 x i8]
define i8* @_WP_ZTSPDh() unnamed_addr {
entry:
  %ptr = bitcast [4 x i8]* @_ZTSPDh to i8*
  ret i8* %ptr
}

@_ZTSPKDh = external constant [5 x i8]
define i8* @_WP_ZTSPKDh() unnamed_addr {
entry:
  %ptr = bitcast [5 x i8]* @_ZTSPKDh to i8*
  ret i8* %ptr
}

@_ZTSf = external constant [2 x i8]
define i8* @_WP_ZTSf() unnamed_addr {
entry:
  %ptr = bitcast [2 x i8]* @_ZTSf to i8*
  ret i8* %ptr
}

@_ZTIf = external constant { i8*, i8* }
define i8* @_WP_ZTIf() unnamed_addr {
entry:
  %ptr = bitcast { i8*, i8* }* @_ZTIf to i8*
  ret i8* %ptr
}

@_ZTSPf = external constant [3 x i8]
define i8* @_WP_ZTSPf() unnamed_addr {
entry:
  %ptr = bitcast [3 x i8]* @_ZTSPf to i8*
  ret i8* %ptr
}

@_ZTSPKf = external constant [4 x i8]
define i8* @_WP_ZTSPKf() unnamed_addr {
entry:
  %ptr = bitcast [4 x i8]* @_ZTSPKf to i8*
  ret i8* %ptr
}

@_ZTSd = external constant [2 x i8]
define i8* @_WP_ZTSd() unnamed_addr {
entry:
  %ptr = bitcast [2 x i8]* @_ZTSd to i8*
  ret i8* %ptr
}

@_ZTId = external constant { i8*, i8* }
define i8* @_WP_ZTId() unnamed_addr {
entry:
  %ptr = bitcast { i8*, i8* }* @_ZTId to i8*
  ret i8* %ptr
}

@_ZTSPd = external constant [3 x i8]
define i8* @_WP_ZTSPd() unnamed_addr {
entry:
  %ptr = bitcast [3 x i8]* @_ZTSPd to i8*
  ret i8* %ptr
}

@_ZTSPKd = external constant [4 x i8]
define i8* @_WP_ZTSPKd() unnamed_addr {
entry:
  %ptr = bitcast [4 x i8]* @_ZTSPKd to i8*
  ret i8* %ptr
}

@_ZTSe = external constant [2 x i8]
define i8* @_WP_ZTSe() unnamed_addr {
entry:
  %ptr = bitcast [2 x i8]* @_ZTSe to i8*
  ret i8* %ptr
}

@_ZTIe = external constant { i8*, i8* }
define i8* @_WP_ZTIe() unnamed_addr {
entry:
  %ptr = bitcast { i8*, i8* }* @_ZTIe to i8*
  ret i8* %ptr
}

@_ZTSPe = external constant [3 x i8]
define i8* @_WP_ZTSPe() unnamed_addr {
entry:
  %ptr = bitcast [3 x i8]* @_ZTSPe to i8*
  ret i8* %ptr
}

@_ZTSPKe = external constant [4 x i8]
define i8* @_WP_ZTSPKe() unnamed_addr {
entry:
  %ptr = bitcast [4 x i8]* @_ZTSPKe to i8*
  ret i8* %ptr
}

@_ZTSg = external constant [2 x i8]
define i8* @_WP_ZTSg() unnamed_addr {
entry:
  %ptr = bitcast [2 x i8]* @_ZTSg to i8*
  ret i8* %ptr
}

@_ZTIg = external constant { i8*, i8* }
define i8* @_WP_ZTIg() unnamed_addr {
entry:
  %ptr = bitcast { i8*, i8* }* @_ZTIg to i8*
  ret i8* %ptr
}

@_ZTSPg = external constant [3 x i8]
define i8* @_WP_ZTSPg() unnamed_addr {
entry:
  %ptr = bitcast [3 x i8]* @_ZTSPg to i8*
  ret i8* %ptr
}

@_ZTSPKg = external constant [4 x i8]
define i8* @_WP_ZTSPKg() unnamed_addr {
entry:
  %ptr = bitcast [4 x i8]* @_ZTSPKg to i8*
  ret i8* %ptr
}

@_ZTSDs = external constant [3 x i8]
define i8* @_WP_ZTSDs() unnamed_addr {
entry:
  %ptr = bitcast [3 x i8]* @_ZTSDs to i8*
  ret i8* %ptr
}

@_ZTIDs = external constant { i8*, i8* }
define i8* @_WP_ZTIDs() unnamed_addr {
entry:
  %ptr = bitcast { i8*, i8* }* @_ZTIDs to i8*
  ret i8* %ptr
}

@_ZTSPDs = external constant [4 x i8]
define i8* @_WP_ZTSPDs() unnamed_addr {
entry:
  %ptr = bitcast [4 x i8]* @_ZTSPDs to i8*
  ret i8* %ptr
}

@_ZTSPKDs = external constant [5 x i8]
define i8* @_WP_ZTSPKDs() unnamed_addr {
entry:
  %ptr = bitcast [5 x i8]* @_ZTSPKDs to i8*
  ret i8* %ptr
}

@_ZTSDi = external constant [3 x i8]
define i8* @_WP_ZTSDi() unnamed_addr {
entry:
  %ptr = bitcast [3 x i8]* @_ZTSDi to i8*
  ret i8* %ptr
}

@_ZTIDi = external constant { i8*, i8* }
define i8* @_WP_ZTIDi() unnamed_addr {
entry:
  %ptr = bitcast { i8*, i8* }* @_ZTIDi to i8*
  ret i8* %ptr
}

@_ZTSPDi = external constant [4 x i8]
define i8* @_WP_ZTSPDi() unnamed_addr {
entry:
  %ptr = bitcast [4 x i8]* @_ZTSPDi to i8*
  ret i8* %ptr
}

@_ZTSPKDi = external constant [5 x i8]
define i8* @_WP_ZTSPKDi() unnamed_addr {
entry:
  %ptr = bitcast [5 x i8]* @_ZTSPKDi to i8*
  ret i8* %ptr
}

@_ZTVN10__cxxabiv117__array_type_infoE = external constant { [7 x i8*] }
define i8* @_WP_ZTVN10__cxxabiv117__array_type_infoE() unnamed_addr {
entry:
  %ptr = bitcast { [7 x i8*] }* @_ZTVN10__cxxabiv117__array_type_infoE to i8*
  ret i8* %ptr
}

@_ZTIN10__cxxabiv117__array_type_infoE = external constant { i8*, i8*, i8* }
define i8* @_WP_ZTIN10__cxxabiv117__array_type_infoE() unnamed_addr {
entry:
  %ptr = bitcast { i8*, i8*, i8* }* @_ZTIN10__cxxabiv117__array_type_infoE to i8*
  ret i8* %ptr
}

@_ZTSN10__cxxabiv117__array_type_infoE = external constant [34 x i8]
define i8* @_WP_ZTSN10__cxxabiv117__array_type_infoE() unnamed_addr {
entry:
  %ptr = bitcast [34 x i8]* @_ZTSN10__cxxabiv117__array_type_infoE to i8*
  ret i8* %ptr
}

@_ZTVN10__cxxabiv120__function_type_infoE = external constant { [7 x i8*] }
define i8* @_WP_ZTVN10__cxxabiv120__function_type_infoE() unnamed_addr {
entry:
  %ptr = bitcast { [7 x i8*] }* @_ZTVN10__cxxabiv120__function_type_infoE to i8*
  ret i8* %ptr
}

@_ZTIN10__cxxabiv120__function_type_infoE = external constant { i8*, i8*, i8* }
define i8* @_WP_ZTIN10__cxxabiv120__function_type_infoE() unnamed_addr {
entry:
  %ptr = bitcast { i8*, i8*, i8* }* @_ZTIN10__cxxabiv120__function_type_infoE to i8*
  ret i8* %ptr
}

@_ZTSN10__cxxabiv120__function_type_infoE = external constant [37 x i8]
define i8* @_WP_ZTSN10__cxxabiv120__function_type_infoE() unnamed_addr {
entry:
  %ptr = bitcast [37 x i8]* @_ZTSN10__cxxabiv120__function_type_infoE to i8*
  ret i8* %ptr
}

@_ZTVN10__cxxabiv116__enum_type_infoE = external constant { [7 x i8*] }
define i8* @_WP_ZTVN10__cxxabiv116__enum_type_infoE() unnamed_addr {
entry:
  %ptr = bitcast { [7 x i8*] }* @_ZTVN10__cxxabiv116__enum_type_infoE to i8*
  ret i8* %ptr
}

@_ZTIN10__cxxabiv116__enum_type_infoE = external constant { i8*, i8*, i8* }
define i8* @_WP_ZTIN10__cxxabiv116__enum_type_infoE() unnamed_addr {
entry:
  %ptr = bitcast { i8*, i8*, i8* }* @_ZTIN10__cxxabiv116__enum_type_infoE to i8*
  ret i8* %ptr
}

@_ZTSN10__cxxabiv116__enum_type_infoE = external constant [33 x i8]
define i8* @_WP_ZTSN10__cxxabiv116__enum_type_infoE() unnamed_addr {
entry:
  %ptr = bitcast [33 x i8]* @_ZTSN10__cxxabiv116__enum_type_infoE to i8*
  ret i8* %ptr
}

@_ZTVN10__cxxabiv117__class_type_infoE = external constant { [10 x i8*] }
define i8* @_WP_ZTVN10__cxxabiv117__class_type_infoE() unnamed_addr {
entry:
  %ptr = bitcast { [10 x i8*] }* @_ZTVN10__cxxabiv117__class_type_infoE to i8*
  ret i8* %ptr
}

@_ZTVN10__cxxabiv121__vmi_class_type_infoE = external constant { [10 x i8*] }
define i8* @_WP_ZTVN10__cxxabiv121__vmi_class_type_infoE() unnamed_addr {
entry:
  %ptr = bitcast { [10 x i8*] }* @_ZTVN10__cxxabiv121__vmi_class_type_infoE to i8*
  ret i8* %ptr
}

@_ZTIN10__cxxabiv121__vmi_class_type_infoE = external constant { i8*, i8*, i8* }
define i8* @_WP_ZTIN10__cxxabiv121__vmi_class_type_infoE() unnamed_addr {
entry:
  %ptr = bitcast { i8*, i8*, i8* }* @_ZTIN10__cxxabiv121__vmi_class_type_infoE to i8*
  ret i8* %ptr
}

@_ZTSN10__cxxabiv121__vmi_class_type_infoE = external constant [38 x i8]
define i8* @_WP_ZTSN10__cxxabiv121__vmi_class_type_infoE() unnamed_addr {
entry:
  %ptr = bitcast [38 x i8]* @_ZTSN10__cxxabiv121__vmi_class_type_infoE to i8*
  ret i8* %ptr
}

@_ZTVN10__cxxabiv117__pbase_type_infoE = external constant { [7 x i8*] }
define i8* @_WP_ZTVN10__cxxabiv117__pbase_type_infoE() unnamed_addr {
entry:
  %ptr = bitcast { [7 x i8*] }* @_ZTVN10__cxxabiv117__pbase_type_infoE to i8*
  ret i8* %ptr
}

@_ZTVN10__cxxabiv129__pointer_to_member_type_infoE = external constant { [7 x i8*] }
define i8* @_WP_ZTVN10__cxxabiv129__pointer_to_member_type_infoE() unnamed_addr {
entry:
  %ptr = bitcast { [7 x i8*] }* @_ZTVN10__cxxabiv129__pointer_to_member_type_infoE to i8*
  ret i8* %ptr
}

@_ZTIN10__cxxabiv129__pointer_to_member_type_infoE = external constant { i8*, i8*, i8* }
define i8* @_WP_ZTIN10__cxxabiv129__pointer_to_member_type_infoE() unnamed_addr {
entry:
  %ptr = bitcast { i8*, i8*, i8* }* @_ZTIN10__cxxabiv129__pointer_to_member_type_infoE to i8*
  ret i8* %ptr
}

@_ZTSN10__cxxabiv129__pointer_to_member_type_infoE = external constant [46 x i8]
define i8* @_WP_ZTSN10__cxxabiv129__pointer_to_member_type_infoE() unnamed_addr {
entry:
  %ptr = bitcast [46 x i8]* @_ZTSN10__cxxabiv129__pointer_to_member_type_infoE to i8*
  ret i8* %ptr
}

@.str__ZNSt9bad_allocC1Ev = private unnamed_addr constant [21 x i8] c"__ZNSt9bad_allocC2Ev\00", align 1
define i8* @_WA_ZNSt9bad_allocC1Ev() unnamed_addr {
entry:
  %ptr = getelementptr inbounds [21 x i8], [21 x i8]* @.str__ZNSt9bad_allocC1Ev, i32 0, i32 0
  ret i8* %ptr
}

@.str__ZNSt9bad_allocD1Ev = private unnamed_addr constant [21 x i8] c"__ZNSt9bad_allocD2Ev\00", align 1
define i8* @_WA_ZNSt9bad_allocD1Ev() unnamed_addr {
entry:
  %ptr = getelementptr inbounds [21 x i8], [21 x i8]* @.str__ZNSt9bad_allocD1Ev, i32 0, i32 0
  ret i8* %ptr
}

@.str__ZNSt20bad_array_new_lengthC1Ev = private unnamed_addr constant [33 x i8] c"__ZNSt20bad_array_new_lengthC2Ev\00", align 1
define i8* @_WA_ZNSt20bad_array_new_lengthC1Ev() unnamed_addr {
entry:
  %ptr = getelementptr inbounds [33 x i8], [33 x i8]* @.str__ZNSt20bad_array_new_lengthC1Ev, i32 0, i32 0
  ret i8* %ptr
}

@.str__ZNSt20bad_array_new_lengthD2Ev = private unnamed_addr constant [21 x i8] c"__ZNSt9bad_allocD2Ev\00", align 1
define i8* @_WA_ZNSt20bad_array_new_lengthD2Ev() unnamed_addr {
entry:
  %ptr = getelementptr inbounds [21 x i8], [21 x i8]* @.str__ZNSt20bad_array_new_lengthD2Ev, i32 0, i32 0
  ret i8* %ptr
}

@.str__ZNSt20bad_array_new_lengthD1Ev = private unnamed_addr constant [21 x i8] c"__ZNSt9bad_allocD2Ev\00", align 1
define i8* @_WA_ZNSt20bad_array_new_lengthD1Ev() unnamed_addr {
entry:
  %ptr = getelementptr inbounds [21 x i8], [21 x i8]* @.str__ZNSt20bad_array_new_lengthD1Ev, i32 0, i32 0
  ret i8* %ptr
}

@.str__ZNSt16bad_array_lengthC1Ev = private unnamed_addr constant [29 x i8] c"__ZNSt16bad_array_lengthC2Ev\00", align 1
define i8* @_WA_ZNSt16bad_array_lengthC1Ev() unnamed_addr {
entry:
  %ptr = getelementptr inbounds [29 x i8], [29 x i8]* @.str__ZNSt16bad_array_lengthC1Ev, i32 0, i32 0
  ret i8* %ptr
}

@.str__ZNSt16bad_array_lengthD2Ev = private unnamed_addr constant [21 x i8] c"__ZNSt9bad_allocD2Ev\00", align 1
define i8* @_WA_ZNSt16bad_array_lengthD2Ev() unnamed_addr {
entry:
  %ptr = getelementptr inbounds [21 x i8], [21 x i8]* @.str__ZNSt16bad_array_lengthD2Ev, i32 0, i32 0
  ret i8* %ptr
}

@.str__ZNSt16bad_array_lengthD1Ev = private unnamed_addr constant [21 x i8] c"__ZNSt9bad_allocD2Ev\00", align 1
define i8* @_WA_ZNSt16bad_array_lengthD1Ev() unnamed_addr {
entry:
  %ptr = getelementptr inbounds [21 x i8], [21 x i8]* @.str__ZNSt16bad_array_lengthD1Ev, i32 0, i32 0
  ret i8* %ptr
}

@.str__ZNSt9exceptionD1Ev = private unnamed_addr constant [21 x i8] c"__ZNSt9exceptionD2Ev\00", align 1
define i8* @_WA_ZNSt9exceptionD1Ev() unnamed_addr {
entry:
  %ptr = getelementptr inbounds [21 x i8], [21 x i8]* @.str__ZNSt9exceptionD1Ev, i32 0, i32 0
  ret i8* %ptr
}

@.str__ZNSt13bad_exceptionD2Ev = private unnamed_addr constant [21 x i8] c"__ZNSt9exceptionD2Ev\00", align 1
define i8* @_WA_ZNSt13bad_exceptionD2Ev() unnamed_addr {
entry:
  %ptr = getelementptr inbounds [21 x i8], [21 x i8]* @.str__ZNSt13bad_exceptionD2Ev, i32 0, i32 0
  ret i8* %ptr
}

@.str__ZNSt13bad_exceptionD1Ev = private unnamed_addr constant [21 x i8] c"__ZNSt9exceptionD2Ev\00", align 1
define i8* @_WA_ZNSt13bad_exceptionD1Ev() unnamed_addr {
entry:
  %ptr = getelementptr inbounds [21 x i8], [21 x i8]* @.str__ZNSt13bad_exceptionD1Ev, i32 0, i32 0
  ret i8* %ptr
}

@.str__ZNSt11logic_errorD1Ev = private unnamed_addr constant [24 x i8] c"__ZNSt11logic_errorD2Ev\00", align 1
define i8* @_WA_ZNSt11logic_errorD1Ev() unnamed_addr {
entry:
  %ptr = getelementptr inbounds [24 x i8], [24 x i8]* @.str__ZNSt11logic_errorD1Ev, i32 0, i32 0
  ret i8* %ptr
}

@.str__ZNSt13runtime_errorD1Ev = private unnamed_addr constant [26 x i8] c"__ZNSt13runtime_errorD2Ev\00", align 1
define i8* @_WA_ZNSt13runtime_errorD1Ev() unnamed_addr {
entry:
  %ptr = getelementptr inbounds [26 x i8], [26 x i8]* @.str__ZNSt13runtime_errorD1Ev, i32 0, i32 0
  ret i8* %ptr
}

@.str__ZNSt12domain_errorD2Ev = private unnamed_addr constant [24 x i8] c"__ZNSt11logic_errorD2Ev\00", align 1
define i8* @_WA_ZNSt12domain_errorD2Ev() unnamed_addr {
entry:
  %ptr = getelementptr inbounds [24 x i8], [24 x i8]* @.str__ZNSt12domain_errorD2Ev, i32 0, i32 0
  ret i8* %ptr
}

@.str__ZNSt12domain_errorD1Ev = private unnamed_addr constant [24 x i8] c"__ZNSt11logic_errorD2Ev\00", align 1
define i8* @_WA_ZNSt12domain_errorD1Ev() unnamed_addr {
entry:
  %ptr = getelementptr inbounds [24 x i8], [24 x i8]* @.str__ZNSt12domain_errorD1Ev, i32 0, i32 0
  ret i8* %ptr
}

@.str__ZNSt16invalid_argumentD2Ev = private unnamed_addr constant [24 x i8] c"__ZNSt11logic_errorD2Ev\00", align 1
define i8* @_WA_ZNSt16invalid_argumentD2Ev() unnamed_addr {
entry:
  %ptr = getelementptr inbounds [24 x i8], [24 x i8]* @.str__ZNSt16invalid_argumentD2Ev, i32 0, i32 0
  ret i8* %ptr
}

@.str__ZNSt16invalid_argumentD1Ev = private unnamed_addr constant [24 x i8] c"__ZNSt11logic_errorD2Ev\00", align 1
define i8* @_WA_ZNSt16invalid_argumentD1Ev() unnamed_addr {
entry:
  %ptr = getelementptr inbounds [24 x i8], [24 x i8]* @.str__ZNSt16invalid_argumentD1Ev, i32 0, i32 0
  ret i8* %ptr
}

@.str__ZNSt12length_errorD2Ev = private unnamed_addr constant [24 x i8] c"__ZNSt11logic_errorD2Ev\00", align 1
define i8* @_WA_ZNSt12length_errorD2Ev() unnamed_addr {
entry:
  %ptr = getelementptr inbounds [24 x i8], [24 x i8]* @.str__ZNSt12length_errorD2Ev, i32 0, i32 0
  ret i8* %ptr
}

@.str__ZNSt12length_errorD1Ev = private unnamed_addr constant [24 x i8] c"__ZNSt11logic_errorD2Ev\00", align 1
define i8* @_WA_ZNSt12length_errorD1Ev() unnamed_addr {
entry:
  %ptr = getelementptr inbounds [24 x i8], [24 x i8]* @.str__ZNSt12length_errorD1Ev, i32 0, i32 0
  ret i8* %ptr
}

@.str__ZNSt12out_of_rangeD2Ev = private unnamed_addr constant [24 x i8] c"__ZNSt11logic_errorD2Ev\00", align 1
define i8* @_WA_ZNSt12out_of_rangeD2Ev() unnamed_addr {
entry:
  %ptr = getelementptr inbounds [24 x i8], [24 x i8]* @.str__ZNSt12out_of_rangeD2Ev, i32 0, i32 0
  ret i8* %ptr
}

@.str__ZNSt12out_of_rangeD1Ev = private unnamed_addr constant [24 x i8] c"__ZNSt11logic_errorD2Ev\00", align 1
define i8* @_WA_ZNSt12out_of_rangeD1Ev() unnamed_addr {
entry:
  %ptr = getelementptr inbounds [24 x i8], [24 x i8]* @.str__ZNSt12out_of_rangeD1Ev, i32 0, i32 0
  ret i8* %ptr
}

@.str__ZNSt11range_errorD2Ev = private unnamed_addr constant [26 x i8] c"__ZNSt13runtime_errorD2Ev\00", align 1
define i8* @_WA_ZNSt11range_errorD2Ev() unnamed_addr {
entry:
  %ptr = getelementptr inbounds [26 x i8], [26 x i8]* @.str__ZNSt11range_errorD2Ev, i32 0, i32 0
  ret i8* %ptr
}

@.str__ZNSt11range_errorD1Ev = private unnamed_addr constant [26 x i8] c"__ZNSt13runtime_errorD2Ev\00", align 1
define i8* @_WA_ZNSt11range_errorD1Ev() unnamed_addr {
entry:
  %ptr = getelementptr inbounds [26 x i8], [26 x i8]* @.str__ZNSt11range_errorD1Ev, i32 0, i32 0
  ret i8* %ptr
}

@.str__ZNSt14overflow_errorD2Ev = private unnamed_addr constant [26 x i8] c"__ZNSt13runtime_errorD2Ev\00", align 1
define i8* @_WA_ZNSt14overflow_errorD2Ev() unnamed_addr {
entry:
  %ptr = getelementptr inbounds [26 x i8], [26 x i8]* @.str__ZNSt14overflow_errorD2Ev, i32 0, i32 0
  ret i8* %ptr
}

@.str__ZNSt14overflow_errorD1Ev = private unnamed_addr constant [26 x i8] c"__ZNSt13runtime_errorD2Ev\00", align 1
define i8* @_WA_ZNSt14overflow_errorD1Ev() unnamed_addr {
entry:
  %ptr = getelementptr inbounds [26 x i8], [26 x i8]* @.str__ZNSt14overflow_errorD1Ev, i32 0, i32 0
  ret i8* %ptr
}

@.str__ZNSt15underflow_errorD2Ev = private unnamed_addr constant [26 x i8] c"__ZNSt13runtime_errorD2Ev\00", align 1
define i8* @_WA_ZNSt15underflow_errorD2Ev() unnamed_addr {
entry:
  %ptr = getelementptr inbounds [26 x i8], [26 x i8]* @.str__ZNSt15underflow_errorD2Ev, i32 0, i32 0
  ret i8* %ptr
}

@.str__ZNSt15underflow_errorD1Ev = private unnamed_addr constant [26 x i8] c"__ZNSt13runtime_errorD2Ev\00", align 1
define i8* @_WA_ZNSt15underflow_errorD1Ev() unnamed_addr {
entry:
  %ptr = getelementptr inbounds [26 x i8], [26 x i8]* @.str__ZNSt15underflow_errorD1Ev, i32 0, i32 0
  ret i8* %ptr
}

@.str__ZNSt9type_infoD1Ev = private unnamed_addr constant [21 x i8] c"__ZNSt9type_infoD2Ev\00", align 1
define i8* @_WA_ZNSt9type_infoD1Ev() unnamed_addr {
entry:
  %ptr = getelementptr inbounds [21 x i8], [21 x i8]* @.str__ZNSt9type_infoD1Ev, i32 0, i32 0
  ret i8* %ptr
}

@.str__ZNSt8bad_castC1Ev = private unnamed_addr constant [20 x i8] c"__ZNSt8bad_castC2Ev\00", align 1
define i8* @_WA_ZNSt8bad_castC1Ev() unnamed_addr {
entry:
  %ptr = getelementptr inbounds [20 x i8], [20 x i8]* @.str__ZNSt8bad_castC1Ev, i32 0, i32 0
  ret i8* %ptr
}

@.str__ZNSt8bad_castD1Ev = private unnamed_addr constant [20 x i8] c"__ZNSt8bad_castD2Ev\00", align 1
define i8* @_WA_ZNSt8bad_castD1Ev() unnamed_addr {
entry:
  %ptr = getelementptr inbounds [20 x i8], [20 x i8]* @.str__ZNSt8bad_castD1Ev, i32 0, i32 0
  ret i8* %ptr
}

@.str__ZNSt10bad_typeidC1Ev = private unnamed_addr constant [23 x i8] c"__ZNSt10bad_typeidC2Ev\00", align 1
define i8* @_WA_ZNSt10bad_typeidC1Ev() unnamed_addr {
entry:
  %ptr = getelementptr inbounds [23 x i8], [23 x i8]* @.str__ZNSt10bad_typeidC1Ev, i32 0, i32 0
  ret i8* %ptr
}

@.str__ZNSt10bad_typeidD1Ev = private unnamed_addr constant [23 x i8] c"__ZNSt10bad_typeidD2Ev\00", align 1
define i8* @_WA_ZNSt10bad_typeidD1Ev() unnamed_addr {
entry:
  %ptr = getelementptr inbounds [23 x i8], [23 x i8]* @.str__ZNSt10bad_typeidD1Ev, i32 0, i32 0
  ret i8* %ptr
}

; exports: "_abort_message", "___cxa_bad_cast", "___cxa_bad_typeid", "__ZL25default_terminate_handlerv", "__ZL26default_unexpected_handlerv", "__ZSt14set_unexpectedPFvvE", "__ZSt13set_terminatePFvvE", "___cxa_demangle", "__ZN10__cxxabiv112_GLOBAL__N_15arenaILj4096EEC2Ev", "__ZN10__cxxabiv112_GLOBAL__N_12DbC2ILj4096EEERNS0_5arenaIXT_EEE", "__ZN10__cxxabiv112_GLOBAL__N_111short_allocINSt3__26vectorINS0_11string_pairENS1_IS4_Lj4096EEEEELj4096EEC2ERNS0_5arenaILj4096EEE", "__ZNSt3__26vectorINS0_INS0_IN10__cxxabiv112_GLOBAL__N_111string_pairENS2_11short_allocIS3_Lj4096EEEEENS4_IS6_Lj4096EEEEENS4_IS8_Lj4096EEEE24__emplace_back_slow_pathIJRNS2_5arenaILj4096EEEEEEvDpOT_", "__ZN10__cxxabiv112_GLOBAL__N_18demangleINS0_2DbEEEvPKcS4_RT_Ri", "__ZN10__cxxabiv112_GLOBAL__N_111string_pairD2Ev", "__ZNSt3__213__vector_baseIN10__cxxabiv112_GLOBAL__N_111string_pairENS2_11short_allocIS3_Lj4096EEEED2Ev", "__ZNK10__cxxabiv112_GLOBAL__N_111string_pair4sizeEv", "__ZNSt3__212basic_stringIcNS_11char_traitsIcEEN10__cxxabiv112_GLOBAL__N_112malloc_allocIcEEE6appendEPKcj", "__ZN10__cxxabiv112_GLOBAL__N_12DbD2Ev", "__ZN10__cxxabiv112_GLOBAL__N_15arenaILj4096EED2Ev", "__ZNSt3__213__vector_baseINS_6vectorINS1_IN10__cxxabiv112_GLOBAL__N_111string_pairENS3_11short_allocIS4_Lj4096EEEEENS5_IS7_Lj4096EEEEENS5_IS9_Lj4096EEEED2Ev", "__ZNSt3__213__vector_baseINS_6vectorIN10__cxxabiv112_GLOBAL__N_111string_pairENS3_11short_allocIS4_Lj4096EEEEENS5_IS7_Lj4096EEEED2Ev", "__ZN10__cxxabiv112_GLOBAL__N_111short_allocINSt3__26vectorINS0_11string_pairENS1_IS4_Lj4096EEEEELj4096EE10deallocateEPS6_j", "__ZN10__cxxabiv112_GLOBAL__N_15arenaILj4096EE10deallocateEPcj", "__ZN10__cxxabiv112_GLOBAL__N_15arenaILj4096EE17pointer_in_bufferEPc", "__ZN10__cxxabiv112_GLOBAL__N_15arenaILj4096EE8align_upEj", "__ZN10__cxxabiv112_GLOBAL__N_111short_allocINSt3__26vectorINS3_INS0_11string_pairENS1_IS4_Lj4096EEEEENS1_IS6_Lj4096EEEEELj4096EE10deallocateEPS8_j", "__ZNSt3__211char_traitsIcE4copyEPcPKcj", "__ZNSt3__211char_traitsIcE6assignERcRKc", "__ZNSt3__212basic_stringIcNS_11char_traitsIcEEN10__cxxabiv112_GLOBAL__N_112malloc_allocIcEEE21__grow_by_and_replaceEjjjjjjPKc", "__ZNKSt3__221__basic_string_commonILb1EE20__throw_length_errorEv", "__ZN10__cxxabiv112_GLOBAL__N_112malloc_allocIcE8allocateEj", "__ZN10__cxxabiv112_GLOBAL__N_112malloc_allocIcE10deallocateEPcj", "__ZN10__cxxabiv112_GLOBAL__N_111short_allocINS0_11string_pairELj4096EE10deallocateEPS2_j", "__ZNSt3__212basic_stringIcNS_11char_traitsIcEEN10__cxxabiv112_GLOBAL__N_112malloc_allocIcEEED2Ev", "__ZN10__cxxabiv112_GLOBAL__N_114parse_encodingINS0_2DbEEEPKcS4_S4_RT_", "__ZN10__cxxabiv112_GLOBAL__N_116parse_dot_suffixINS0_2DbEEEPKcS4_S4_RT_", "__ZN10__cxxabiv112_GLOBAL__N_118parse_block_invokeINS0_2DbEEEPKcS4_S4_RT_", "__ZN10__cxxabiv112_GLOBAL__N_110parse_typeINS0_2DbEEEPKcS4_S4_RT_", "__ZN10__cxxabiv112_GLOBAL__N_119parse_cv_qualifiersEPKcS2_Rj", "__ZNSt3__26vectorINS0_IN10__cxxabiv112_GLOBAL__N_111string_pairENS2_11short_allocIS3_Lj4096EEEEENS4_IS6_Lj4096EEEE24__emplace_back_slow_pathIJS5_EEEvDpOT_", "__ZNSt3__212basic_stringIcNS_11char_traitsIcEEN10__cxxabiv112_GLOBAL__N_112malloc_allocIcEEE6insertEjPKc", "__ZNSt3__212basic_stringIcNS_11char_traitsIcEEN10__cxxabiv112_GLOBAL__N_112malloc_allocIcEEE6appendEPKc", "__ZN10__cxxabiv112_GLOBAL__N_111string_pairC2ERKS1_", "__ZNSt3__26vectorIN10__cxxabiv112_GLOBAL__N_111string_pairENS2_11short_allocIS3_Lj4096EEEE21__push_back_slow_pathIRKS3_EEvOT_", "__ZN10__cxxabiv112_GLOBAL__N_118parse_builtin_typeINS0_2DbEEEPKcS4_S4_RT_", "__ZN10__cxxabiv112_GLOBAL__N_116parse_array_typeINS0_2DbEEEPKcS4_S4_RT_", "__ZNSt3__26vectorIN10__cxxabiv112_GLOBAL__N_111string_pairENS2_11short_allocIS3_Lj4096EEEEC2EjRKS3_RKS5_", "__ZNSt3__26vectorINS0_IN10__cxxabiv112_GLOBAL__N_111string_pairENS2_11short_allocIS3_Lj4096EEEEENS4_IS6_Lj4096EEEE21__push_back_slow_pathIS6_EEvOT_", "__ZN10__cxxabiv112_GLOBAL__N_119parse_function_typeINS0_2DbEEEPKcS4_S4_RT_", "__ZN10__cxxabiv112_GLOBAL__N_128parse_pointer_to_member_typeINS0_2DbEEEPKcS4_S4_RT_", "__ZNSt3__212basic_stringIcNS_11char_traitsIcEEN10__cxxabiv112_GLOBAL__N_112malloc_allocIcEEEC2ERKS7_jjRKS6_", "__ZNSt3__211char_traitsIcE6lengthEPKc", "__ZNKSt3__212basic_stringIcNS_11char_traitsIcEEN10__cxxabiv112_GLOBAL__N_112malloc_allocIcEEE7compareEjjPKcj", "___clang_call_terminate", "__ZNSt3__212basic_stringIcNS_11char_traitsIcEEN10__cxxabiv112_GLOBAL__N_112malloc_allocIcEEE7replaceEjjPKc", "__ZN10__cxxabiv112_GLOBAL__N_120parse_template_paramINS0_2DbEEEPKcS4_S4_RT_", "__ZN10__cxxabiv112_GLOBAL__N_119parse_template_argsINS0_2DbEEEPKcS4_S4_RT_", "__ZN10__cxxabiv112_GLOBAL__N_111string_pair9move_fullEv", "__ZN10__cxxabiv112_GLOBAL__N_117parse_source_nameINS0_2DbEEEPKcS4_S4_RT_", "__ZNSt3__2plIcNS_11char_traitsIcEEN10__cxxabiv112_GLOBAL__N_112malloc_allocIcEEEENS_12basic_stringIT_T0_T1_EERKSB_PKS8_", "__ZN10__cxxabiv112_GLOBAL__N_111string_pairC2ENSt3__212basic_stringIcNS2_11char_traitsIcEENS0_12malloc_allocIcEEEE", "__ZN10__cxxabiv112_GLOBAL__N_111string_pairaSEOS1_", "__ZN10__cxxabiv112_GLOBAL__N_111string_pairC2EOS1_", "__ZNSt3__26vectorIN10__cxxabiv112_GLOBAL__N_111string_pairENS2_11short_allocIS3_Lj4096EEEE21__push_back_slow_pathIS3_EEvOT_", "__ZN10__cxxabiv112_GLOBAL__N_110parse_nameINS0_2DbEEEPKcS4_S4_RT_", "__ZN10__cxxabiv112_GLOBAL__N_118parse_substitutionINS0_2DbEEEPKcS4_S4_RT_", "__ZN10__cxxabiv112_GLOBAL__N_114parse_decltypeINS0_2DbEEEPKcS4_S4_RT_", "__ZN10__cxxabiv112_GLOBAL__N_117parse_vector_typeINS0_2DbEEEPKcS4_S4_RT_", "__ZN10__cxxabiv112_GLOBAL__N_112parse_numberEPKcS2_", "__ZNSt3__212basic_stringIcNS_11char_traitsIcEEN10__cxxabiv112_GLOBAL__N_112malloc_allocIcEEE6__initEPKcj", "__ZN10__cxxabiv112_GLOBAL__N_116parse_expressionINS0_2DbEEEPKcS4_S4_RT_", "__ZNSt3__212basic_stringIcNS_11char_traitsIcEEN10__cxxabiv112_GLOBAL__N_112malloc_allocIcEEE7reserveEj", "__ZNSt3__2plIcNS_11char_traitsIcEEN10__cxxabiv112_GLOBAL__N_112malloc_allocIcEEEENS_12basic_stringIT_T0_T1_EEPKS8_RKSB_", "__ZNSt3__212basic_stringIcNS_11char_traitsIcEEN10__cxxabiv112_GLOBAL__N_112malloc_allocIcEEE6__initEPKcjj", "__ZN10__cxxabiv112_GLOBAL__N_118parse_expr_primaryINS0_2DbEEEPKcS4_S4_RT_", "__ZN10__cxxabiv112_GLOBAL__N_120parse_function_paramINS0_2DbEEEPKcS4_S4_RT_", "__ZN10__cxxabiv112_GLOBAL__N_123parse_binary_expressionINS0_2DbEEEPKcS4_S4_RKNT_6StringERS5_", "__ZN10__cxxabiv112_GLOBAL__N_123parse_prefix_expressionINS0_2DbEEEPKcS4_S4_RKNT_6StringERS5_", "__ZN10__cxxabiv112_GLOBAL__N_118parse_alignof_typeINS0_2DbEEEPKcS4_S4_RT_", "__ZN10__cxxabiv112_GLOBAL__N_118parse_alignof_exprINS0_2DbEEEPKcS4_S4_RT_", "__ZN10__cxxabiv112_GLOBAL__N_121parse_const_cast_exprINS0_2DbEEEPKcS4_S4_RT_", "__ZN10__cxxabiv112_GLOBAL__N_115parse_call_exprINS0_2DbEEEPKcS4_S4_RT_", "__ZN10__cxxabiv112_GLOBAL__N_121parse_conversion_exprINS0_2DbEEEPKcS4_S4_RT_", "__ZN10__cxxabiv112_GLOBAL__N_123parse_dynamic_cast_exprINS0_2DbEEEPKcS4_S4_RT_", "__ZN10__cxxabiv112_GLOBAL__N_121parse_unresolved_nameINS0_2DbEEEPKcS4_S4_RT_", "__ZN10__cxxabiv112_GLOBAL__N_119parse_dot_star_exprINS0_2DbEEEPKcS4_S4_RT_", "__ZN10__cxxabiv112_GLOBAL__N_114parse_dot_exprINS0_2DbEEEPKcS4_S4_RT_", "__ZN10__cxxabiv112_GLOBAL__N_114parse_new_exprINS0_2DbEEEPKcS4_S4_RT_", "__ZN10__cxxabiv112_GLOBAL__N_125parse_noexcept_expressionINS0_2DbEEEPKcS4_S4_RT_", "__ZN10__cxxabiv112_GLOBAL__N_116parse_arrow_exprINS0_2DbEEEPKcS4_S4_RT_", "__ZN10__cxxabiv112_GLOBAL__N_127parse_reinterpret_cast_exprINS0_2DbEEEPKcS4_S4_RT_", "__ZN10__cxxabiv112_GLOBAL__N_122parse_static_cast_exprINS0_2DbEEEPKcS4_S4_RT_", "__ZN10__cxxabiv112_GLOBAL__N_120parse_pack_expansionINS0_2DbEEEPKcS4_S4_RT_", "__ZN10__cxxabiv112_GLOBAL__N_122parse_sizeof_type_exprINS0_2DbEEEPKcS4_S4_RT_", "__ZN10__cxxabiv112_GLOBAL__N_122parse_sizeof_expr_exprINS0_2DbEEEPKcS4_S4_RT_", "__ZN10__cxxabiv112_GLOBAL__N_128parse_sizeof_param_pack_exprINS0_2DbEEEPKcS4_S4_RT_", "__ZN10__cxxabiv112_GLOBAL__N_137parse_sizeof_function_param_pack_exprINS0_2DbEEEPKcS4_S4_RT_", "__ZN10__cxxabiv112_GLOBAL__N_117parse_typeid_exprINS0_2DbEEEPKcS4_S4_RT_", "__ZN10__cxxabiv112_GLOBAL__N_111string_pairC2ILj6EEERAT__Kc", "__ZN10__cxxabiv112_GLOBAL__N_116parse_throw_exprINS0_2DbEEEPKcS4_S4_RT_", "__ZNSt3__212basic_stringIcNS_11char_traitsIcEEN10__cxxabiv112_GLOBAL__N_112malloc_allocIcEEE6assignEPKc", "__ZNSt3__212basic_stringIcNS_11char_traitsIcEEN10__cxxabiv112_GLOBAL__N_112malloc_allocIcEEE6assignEPKcj", "__ZNSt3__211char_traitsIcE4moveEPcPKcj", "__ZN10__cxxabiv112_GLOBAL__N_126parse_base_unresolved_nameINS0_2DbEEEPKcS4_S4_RT_", "__ZN10__cxxabiv112_GLOBAL__N_121parse_unresolved_typeINS0_2DbEEEPKcS4_S4_RT_", "__ZN10__cxxabiv112_GLOBAL__N_132parse_unresolved_qualifier_levelINS0_2DbEEEPKcS4_S4_RT_", "__ZN10__cxxabiv112_GLOBAL__N_115parse_simple_idINS0_2DbEEEPKcS4_S4_RT_", "__ZN10__cxxabiv112_GLOBAL__N_122parse_unqualified_nameINS0_2DbEEEPKcS4_S4_RT_", "__ZN10__cxxabiv112_GLOBAL__N_120parse_ctor_dtor_nameINS0_2DbEEEPKcS4_S4_RT_", "__ZN10__cxxabiv112_GLOBAL__N_123parse_unnamed_type_nameINS0_2DbEEEPKcS4_S4_RT_", "__ZN10__cxxabiv112_GLOBAL__N_119parse_operator_nameINS0_2DbEEEPKcS4_S4_RT_", "__ZN10__cxxabiv112_GLOBAL__N_111string_pairC2ILj11EEERAT__Kc", "__ZN10__cxxabiv112_GLOBAL__N_111string_pairC2ILj10EEERAT__Kc", "__ZN10__cxxabiv112_GLOBAL__N_111string_pairC2ILj18EEERAT__Kc", "__ZN10__cxxabiv112_GLOBAL__N_111string_pairC2ILj16EEERAT__Kc", "__ZN10__cxxabiv112_GLOBAL__N_111string_pairC2ILj12EEERAT__Kc", "__ZN10__cxxabiv112_GLOBAL__N_111string_pairC2ILj15EEERAT__Kc", "__ZN10__cxxabiv112_GLOBAL__N_111string_pairC2ILj13EEERAT__Kc", "__ZNSt3__212basic_stringIcNS_11char_traitsIcEEN10__cxxabiv112_GLOBAL__N_112malloc_allocIcEEE6appendIPKcEENS_9enable_ifIXaasr21__is_forward_iteratorIT_EE5valuesr38__libcpp_string_gets_noexcept_iteratorISC_EE5valueERS7_E4typeESC_SC_", "__ZNSt3__212basic_stringIcNS_11char_traitsIcEEN10__cxxabiv112_GLOBAL__N_112malloc_allocIcEEE9push_backEc", "__ZNSt3__212basic_stringIcNS_11char_traitsIcEEN10__cxxabiv112_GLOBAL__N_112malloc_allocIcEEE6insertIPKcEENS_9enable_ifIXaasr21__is_forward_iteratorIT_EE5valuesr38__libcpp_string_gets_noexcept_iteratorISC_EE5valueENS_11__wrap_iterIPcEEE4typeENSD_ISA_EESC_SC_", "__ZNSt3__212basic_stringIcNS_11char_traitsIcEEN10__cxxabiv112_GLOBAL__N_112malloc_allocIcEEE9__grow_byEjjjjjj", "__ZN10__cxxabiv112_GLOBAL__N_19base_nameINSt3__212basic_stringIcNS2_11char_traitsIcEENS0_12malloc_allocIcEEEEEET_RS9_", "__ZNSt3__212basic_stringIcNS_11char_traitsIcEEN10__cxxabiv112_GLOBAL__N_112malloc_allocIcEEEC2ERKS7_", "__ZNSt3__212basic_stringIcNS_11char_traitsIcEEN10__cxxabiv112_GLOBAL__N_112malloc_allocIcEEE6__initIPKcEENS_9enable_ifIXsr21__is_forward_iteratorIT_EE5valueEvE4typeESC_SC_", "__ZN10__cxxabiv112_GLOBAL__N_121parse_destructor_nameINS0_2DbEEEPKcS4_S4_RT_", "__ZN10__cxxabiv112_GLOBAL__N_111string_pairC2Ev", "__ZNSt3__26vectorIN10__cxxabiv112_GLOBAL__N_111string_pairENS2_11short_allocIS3_Lj4096EEEE24__emplace_back_slow_pathIJEEEvDpOT_", "__ZNKSt3__26vectorIN10__cxxabiv112_GLOBAL__N_111string_pairENS2_11short_allocIS3_Lj4096EEEE8max_sizeEv", "__ZNKSt3__220__vector_base_commonILb1EE20__throw_length_errorEv", "__ZNSt3__214__split_bufferIN10__cxxabiv112_GLOBAL__N_111string_pairERNS2_11short_allocIS3_Lj4096EEEEC2EjjS6_", "__ZNSt3__26vectorIN10__cxxabiv112_GLOBAL__N_111string_pairENS2_11short_allocIS3_Lj4096EEEE26__swap_out_circular_bufferERNS_14__split_bufferIS3_RS5_EE", "__ZNSt3__214__split_bufferIN10__cxxabiv112_GLOBAL__N_111string_pairERNS2_11short_allocIS3_Lj4096EEEED2Ev", "__ZN10__cxxabiv112_GLOBAL__N_111short_allocINS0_11string_pairELj4096EE8allocateEj", "__ZN10__cxxabiv112_GLOBAL__N_15arenaILj4096EE8allocateEj", "__ZN10__cxxabiv112_GLOBAL__N_121parse_integer_literalINS0_2DbEEEPKcS4_S4_RKNT_6StringERS5_", "__ZN10__cxxabiv112_GLOBAL__N_111string_pairC2ILj5EEERAT__Kc", "__ZN10__cxxabiv112_GLOBAL__N_121parse_floating_numberIfNS0_2DbEEEPKcS4_S4_RT0_", "__ZN10__cxxabiv112_GLOBAL__N_121parse_floating_numberIdNS0_2DbEEEPKcS4_S4_RT0_", "__ZN10__cxxabiv112_GLOBAL__N_121parse_floating_numberIeNS0_2DbEEEPKcS4_S4_RT0_", "__ZN10__cxxabiv112_GLOBAL__N_111string_pairC2ILj14EEERAT__Kc", "__ZN10__cxxabiv112_GLOBAL__N_117parse_nested_nameINS0_2DbEEEPKcS4_S4_RT_", "__ZN10__cxxabiv112_GLOBAL__N_116parse_local_nameINS0_2DbEEEPKcS4_S4_RT_", "__ZN10__cxxabiv112_GLOBAL__N_119parse_unscoped_nameINS0_2DbEEEPKcS4_S4_RT_", "__ZN10__cxxabiv112_GLOBAL__N_119parse_discriminatorEPKcS2_", "__ZNSt3__212basic_stringIcNS_11char_traitsIcEEN10__cxxabiv112_GLOBAL__N_112malloc_allocIcEEEaSERKS7_", "__ZN10__cxxabiv112_GLOBAL__N_111string_pairC2ILj22EEERAT__Kc", "__ZN10__cxxabiv112_GLOBAL__N_111short_allocINSt3__26vectorINS0_11string_pairENS1_IS4_Lj4096EEEEELj4096EEC2IS4_EERKNS1_IT_Lj4096EEE", "__ZNSt3__26vectorINS0_INS0_IN10__cxxabiv112_GLOBAL__N_111string_pairENS2_11short_allocIS3_Lj4096EEEEENS4_IS6_Lj4096EEEEENS4_IS8_Lj4096EEEE24__emplace_back_slow_pathIJS5_EEEvDpOT_", "__ZN10__cxxabiv112_GLOBAL__N_118parse_template_argINS0_2DbEEEPKcS4_S4_RT_", "__ZNKSt3__26vectorINS0_INS0_IN10__cxxabiv112_GLOBAL__N_111string_pairENS2_11short_allocIS3_Lj4096EEEEENS4_IS6_Lj4096EEEEENS4_IS8_Lj4096EEEE8max_sizeEv", "__ZNSt3__214__split_bufferINS_6vectorINS1_IN10__cxxabiv112_GLOBAL__N_111string_pairENS3_11short_allocIS4_Lj4096EEEEENS5_IS7_Lj4096EEEEERNS5_IS9_Lj4096EEEEC2EjjSB_", "__ZNSt3__26vectorINS0_INS0_IN10__cxxabiv112_GLOBAL__N_111string_pairENS2_11short_allocIS3_Lj4096EEEEENS4_IS6_Lj4096EEEEENS4_IS8_Lj4096EEEE26__swap_out_circular_bufferERNS_14__split_bufferIS8_RS9_EE", "__ZNSt3__214__split_bufferINS_6vectorINS1_IN10__cxxabiv112_GLOBAL__N_111string_pairENS3_11short_allocIS4_Lj4096EEEEENS5_IS7_Lj4096EEEEERNS5_IS9_Lj4096EEEED2Ev", "__ZN10__cxxabiv112_GLOBAL__N_111short_allocINSt3__26vectorINS3_INS0_11string_pairENS1_IS4_Lj4096EEEEENS1_IS6_Lj4096EEEEELj4096EE8allocateEj", "__ZN10__cxxabiv112_GLOBAL__N_111string_pairC2ILj3EEERAT__Kc", "__ZNSt3__212basic_stringIcNS_11char_traitsIcEEN10__cxxabiv112_GLOBAL__N_112malloc_allocIcEEE7replaceEjjPKcj", "__ZNKSt3__221__basic_string_commonILb1EE20__throw_out_of_rangeEv", "__ZNSt3__211char_traitsIcE7compareEPKcS3_j", "__ZNSt3__212basic_stringIcNS_11char_traitsIcEEN10__cxxabiv112_GLOBAL__N_112malloc_allocIcEEE6insertEjPKcj", "__ZNKSt3__26vectorINS0_IN10__cxxabiv112_GLOBAL__N_111string_pairENS2_11short_allocIS3_Lj4096EEEEENS4_IS6_Lj4096EEEE8max_sizeEv", "__ZNSt3__214__split_bufferINS_6vectorIN10__cxxabiv112_GLOBAL__N_111string_pairENS3_11short_allocIS4_Lj4096EEEEERNS5_IS7_Lj4096EEEEC2EjjS9_", "__ZNSt3__26vectorINS0_IN10__cxxabiv112_GLOBAL__N_111string_pairENS2_11short_allocIS3_Lj4096EEEEENS4_IS6_Lj4096EEEE26__swap_out_circular_bufferERNS_14__split_bufferIS6_RS7_EE", "__ZNSt3__214__split_bufferINS_6vectorIN10__cxxabiv112_GLOBAL__N_111string_pairENS3_11short_allocIS4_Lj4096EEEEERNS5_IS7_Lj4096EEEED2Ev", "__ZN10__cxxabiv112_GLOBAL__N_111short_allocINSt3__26vectorINS0_11string_pairENS1_IS4_Lj4096EEEEELj4096EE8allocateEj", "__ZNSt3__26vectorIN10__cxxabiv112_GLOBAL__N_111string_pairENS2_11short_allocIS3_Lj4096EEEE8allocateEj", "__ZNSt3__212basic_stringIcNS_11char_traitsIcEEN10__cxxabiv112_GLOBAL__N_112malloc_allocIcEEE5eraseEjj", "__ZN10__cxxabiv112_GLOBAL__N_111string_pairC2ILj8EEERAT__Kc", "__ZN10__cxxabiv112_GLOBAL__N_111string_pairC2ILj4EEERAT__Kc", "__ZN10__cxxabiv112_GLOBAL__N_111string_pairC2ILj19EEERAT__Kc", "__ZN10__cxxabiv112_GLOBAL__N_111string_pairC2ILj9EEERAT__Kc", "__ZN10__cxxabiv112_GLOBAL__N_111string_pairC2ILj7EEERAT__Kc", "__ZN10__cxxabiv112_GLOBAL__N_110save_valueIjEC2ERj", "__ZN10__cxxabiv112_GLOBAL__N_110save_valueIbEC2ERb", "__ZN10__cxxabiv112_GLOBAL__N_118parse_special_nameINS0_2DbEEEPKcS4_S4_RT_", "__ZN10__cxxabiv112_GLOBAL__N_110save_valueIbED2Ev", "__ZN10__cxxabiv112_GLOBAL__N_110save_valueIjED2Ev", "__ZN10__cxxabiv112_GLOBAL__N_117parse_call_offsetEPKcS2_", "__ZN10__cxxabiv112_GLOBAL__N_111short_allocINS0_11string_pairELj4096EEC2ERNS0_5arenaILj4096EEE", "__ZNSt3__26vectorINS0_IN10__cxxabiv112_GLOBAL__N_111string_pairENS2_11short_allocIS3_Lj4096EEEEENS4_IS6_Lj4096EEEEC2EjRKS6_RKS7_", "__ZN10__cxxabiv112_GLOBAL__N_111short_allocINSt3__26vectorINS3_INS0_11string_pairENS1_IS4_Lj4096EEEEENS1_IS6_Lj4096EEEEELj4096EEC2ERNS0_5arenaILj4096EEE", "__ZNSt3__26vectorINS0_INS0_IN10__cxxabiv112_GLOBAL__N_111string_pairENS2_11short_allocIS3_Lj4096EEEEENS4_IS6_Lj4096EEEEENS4_IS8_Lj4096EEEEC2EjRKS8_RKS9_", "___cxa_get_globals", "___cxa_get_globals_fast", "__ZN10__cxxabiv112_GLOBAL__N_110construct_Ev", "__ZN10__cxxabiv112_GLOBAL__N_19destruct_EPv", "___cxa_guard_acquire", "___cxa_guard_release", "___cxa_guard_abort", "__ZNSt9bad_allocD2Ev", "__ZNSt9bad_allocD0Ev", "__ZNKSt9bad_alloc4whatEv", "__ZdlPv", "__ZNSt20bad_array_new_lengthD0Ev", "__ZNKSt20bad_array_new_length4whatEv", "__ZNSt16bad_array_lengthD0Ev", "__ZNKSt16bad_array_length4whatEv", "__Znwj", "__ZNSt9bad_allocC2Ev", "__ZnwjRKSt9nothrow_t", "__Znaj", "__ZnajRKSt9nothrow_t", "__ZdlPvRKSt9nothrow_t", "__ZdaPv", "__ZdaPvRKSt9nothrow_t", "__ZNSt20bad_array_new_lengthC2Ev", "__ZNSt16bad_array_lengthC2Ev", "__ZSt14get_unexpectedv", "__ZSt12__unexpectedPFvvE", "__ZSt10unexpectedv", "__ZSt13get_terminatev", "__ZSt11__terminatePFvvE", "__ZSt9terminatev", "__ZSt15set_new_handlerPFvvE", "__ZSt15get_new_handlerv", "__ZNSt9exceptionD2Ev", "__ZNSt9exceptionD0Ev", "__ZNKSt9exception4whatEv", "__ZNSt13bad_exceptionD0Ev", "__ZNKSt13bad_exception4whatEv", "__ZNSt11logic_errorD2Ev", "__ZNSt11logic_errorD0Ev", "__ZNKSt11logic_error4whatEv", "__ZNK12_GLOBAL__N_114__libcpp_nmstr5c_strEv", "__ZN12_GLOBAL__N_114__libcpp_nmstrD2Ev", "__ZNK12_GLOBAL__N_114__libcpp_nmstr5countEv", "__ZNSt13runtime_errorD2Ev", "__ZNSt13runtime_errorD0Ev", "__ZNKSt13runtime_error4whatEv", "__ZNSt12domain_errorD0Ev", "__ZNSt16invalid_argumentD0Ev", "__ZNSt12length_errorD0Ev", "__ZNSt12out_of_rangeD0Ev", "__ZNSt11range_errorD0Ev", "__ZNSt14overflow_errorD0Ev", "__ZNSt15underflow_errorD0Ev", "__ZNSt8bad_castD2Ev", "__ZNSt8bad_castD0Ev", "__ZNKSt8bad_cast4whatEv", "__ZNSt10bad_typeidD2Ev", "__ZNSt10bad_typeidD0Ev", "__ZNKSt10bad_typeid4whatEv", "__ZNSt9type_infoD2Ev", "__ZNSt9type_infoD0Ev", "__ZNSt8bad_castC2Ev", "__ZNSt10bad_typeidC2Ev", "__ZN10__cxxabiv116__shim_type_infoD2Ev", "__ZN10__cxxabiv120__si_class_type_infoD0Ev", "__ZNK10__cxxabiv116__shim_type_info5noop1Ev", "__ZNK10__cxxabiv116__shim_type_info5noop2Ev", "__ZNK10__cxxabiv117__class_type_info9can_catchEPKNS_16__shim_type_infoERPv", "__ZNK10__cxxabiv120__si_class_type_info16search_above_dstEPNS_19__dynamic_cast_infoEPKvS4_ib", "__ZNK10__cxxabiv120__si_class_type_info16search_below_dstEPNS_19__dynamic_cast_infoEPKvib", "__ZNK10__cxxabiv120__si_class_type_info27has_unambiguous_public_baseEPNS_19__dynamic_cast_infoEPvi", "__ZN10__cxxabiv18is_equalEPKSt9type_infoS2_b", "__ZNK10__cxxabiv117__class_type_info24process_found_base_classEPNS_19__dynamic_cast_infoEPvi", "__ZNK10__cxxabiv117__class_type_info29process_static_type_below_dstEPNS_19__dynamic_cast_infoEPKvi", "__ZNK10__cxxabiv117__class_type_info29process_static_type_above_dstEPNS_19__dynamic_cast_infoEPKvS4_i", "___dynamic_cast", "__ZN10__cxxabiv116__shim_type_infoD0Ev", "__ZN10__cxxabiv123__fundamental_type_infoD0Ev", "__ZNK10__cxxabiv123__fundamental_type_info9can_catchEPKNS_16__shim_type_infoERPv", "__ZN10__cxxabiv119__pointer_type_infoD0Ev", "__ZNK10__cxxabiv119__pointer_type_info9can_catchEPKNS_16__shim_type_infoERPv", "__ZNK10__cxxabiv117__pbase_type_info9can_catchEPKNS_16__shim_type_infoERPv", "__ZN10__cxxabiv117__array_type_infoD0Ev", "__ZNK10__cxxabiv117__array_type_info9can_catchEPKNS_16__shim_type_infoERPv", "__ZN10__cxxabiv120__function_type_infoD0Ev", "__ZNK10__cxxabiv120__function_type_info9can_catchEPKNS_16__shim_type_infoERPv", "__ZN10__cxxabiv116__enum_type_infoD0Ev", "__ZNK10__cxxabiv116__enum_type_info9can_catchEPKNS_16__shim_type_infoERPv", "__ZN10__cxxabiv117__class_type_infoD0Ev", "__ZNK10__cxxabiv117__class_type_info16search_above_dstEPNS_19__dynamic_cast_infoEPKvS4_ib", "__ZNK10__cxxabiv117__class_type_info16search_below_dstEPNS_19__dynamic_cast_infoEPKvib", "__ZNK10__cxxabiv117__class_type_info27has_unambiguous_public_baseEPNS_19__dynamic_cast_infoEPvi", "__ZN10__cxxabiv121__vmi_class_type_infoD0Ev", "__ZNK10__cxxabiv121__vmi_class_type_info16search_above_dstEPNS_19__dynamic_cast_infoEPKvS4_ib", "__ZNK10__cxxabiv121__vmi_class_type_info16search_below_dstEPNS_19__dynamic_cast_infoEPKvib", "__ZNK10__cxxabiv121__vmi_class_type_info27has_unambiguous_public_baseEPNS_19__dynamic_cast_infoEPvi", "__ZNK10__cxxabiv122__base_class_type_info27has_unambiguous_public_baseEPNS_19__dynamic_cast_infoEPvi", "__ZNK10__cxxabiv122__base_class_type_info16search_above_dstEPNS_19__dynamic_cast_infoEPKvS4_ib", "__ZNK10__cxxabiv122__base_class_type_info16search_below_dstEPNS_19__dynamic_cast_infoEPKvib", "__ZN10__cxxabiv117__pbase_type_infoD0Ev", "__ZN10__cxxabiv129__pointer_to_member_type_infoD0Ev", "___cxa_can_catch", "___cxa_is_pointer_type", "__WP_ZTVSt9bad_alloc", "__WP_ZTISt9bad_alloc", "__WP_ZTSSt9bad_alloc", "__WP_ZTVSt20bad_array_new_length", "__WP_ZTISt20bad_array_new_length", "__WP_ZTSSt20bad_array_new_length", "__WP_ZTVSt16bad_array_length", "__WP_ZTISt16bad_array_length", "__WP_ZTSSt16bad_array_length", "__WP_ZTVSt9exception", "__WP_ZTISt9exception", "__WP_ZTSSt9exception", "__WP_ZTVSt13bad_exception", "__WP_ZTISt13bad_exception", "__WP_ZTSSt13bad_exception", "__WP_ZTVSt11logic_error", "__WP_ZTISt11logic_error", "__WP_ZTSSt11logic_error", "__WP_ZTVSt13runtime_error", "__WP_ZTISt13runtime_error", "__WP_ZTSSt13runtime_error", "__WP_ZTVSt12domain_error", "__WP_ZTISt12domain_error", "__WP_ZTSSt12domain_error", "__WP_ZTVSt16invalid_argument", "__WP_ZTISt16invalid_argument", "__WP_ZTSSt16invalid_argument", "__WP_ZTVSt12length_error", "__WP_ZTISt12length_error", "__WP_ZTSSt12length_error", "__WP_ZTVSt12out_of_range", "__WP_ZTISt12out_of_range", "__WP_ZTSSt12out_of_range", "__WP_ZTVSt11range_error", "__WP_ZTISt11range_error", "__WP_ZTSSt11range_error", "__WP_ZTVSt14overflow_error", "__WP_ZTISt14overflow_error", "__WP_ZTSSt14overflow_error", "__WP_ZTVSt15underflow_error", "__WP_ZTISt15underflow_error", "__WP_ZTSSt15underflow_error", "__WP_ZTVSt8bad_cast", "__WP_ZTISt8bad_cast", "__WP_ZTSSt8bad_cast", "__WP_ZTVSt10bad_typeid", "__WP_ZTISt10bad_typeid", "__WP_ZTSSt10bad_typeid", "__WP_ZTVSt9type_info", "__WP_ZTISt9type_info", "__WP_ZTSSt9type_info", "__WP_ZTSN10__cxxabiv116__shim_type_infoE", "__WP_ZTIN10__cxxabiv116__shim_type_infoE", "__WP_ZTVN10__cxxabiv120__si_class_type_infoE", "__WP_ZTIN10__cxxabiv120__si_class_type_infoE", "__WP_ZTIN10__cxxabiv117__class_type_infoE", "__WP_ZTSN10__cxxabiv117__class_type_infoE", "__WP_ZTSN10__cxxabiv120__si_class_type_infoE", "__WP_ZTSN10__cxxabiv119__pointer_type_infoE", "__WP_ZTSN10__cxxabiv117__pbase_type_infoE", "__WP_ZTIN10__cxxabiv117__pbase_type_infoE", "__WP_ZTIN10__cxxabiv119__pointer_type_infoE", "__WP_ZTVN10__cxxabiv116__shim_type_infoE", "__WP_ZTVN10__cxxabiv123__fundamental_type_infoE", "__WP_ZTIN10__cxxabiv123__fundamental_type_infoE", "__WP_ZTSN10__cxxabiv123__fundamental_type_infoE", "__WP_ZTSv", "__WP_ZTIv", "__WP_ZTSPv", "__WP_ZTVN10__cxxabiv119__pointer_type_infoE", "__WP_ZTIDn", "__WP_ZTSDn", "__WP_ZTSPKv", "__WP_ZTSPDn", "__WP_ZTSPKDn", "__WP_ZTSb", "__WP_ZTIb", "__WP_ZTSPb", "__WP_ZTSPKb", "__WP_ZTSw", "__WP_ZTIw", "__WP_ZTSPw", "__WP_ZTSPKw", "__WP_ZTSc", "__WP_ZTIc", "__WP_ZTSPc", "__WP_ZTSPKc", "__WP_ZTSh", "__WP_ZTIh", "__WP_ZTSPh", "__WP_ZTSPKh", "__WP_ZTSa", "__WP_ZTIa", "__WP_ZTSPa", "__WP_ZTSPKa", "__WP_ZTSs", "__WP_ZTIs", "__WP_ZTSPs", "__WP_ZTSPKs", "__WP_ZTSt", "__WP_ZTIt", "__WP_ZTSPt", "__WP_ZTSPKt", "__WP_ZTSi", "__WP_ZTIi", "__WP_ZTSPi", "__WP_ZTSPKi", "__WP_ZTSj", "__WP_ZTIj", "__WP_ZTSPj", "__WP_ZTSPKj", "__WP_ZTSl", "__WP_ZTIl", "__WP_ZTSPl", "__WP_ZTSPKl", "__WP_ZTSm", "__WP_ZTIm", "__WP_ZTSPm", "__WP_ZTSPKm", "__WP_ZTSx", "__WP_ZTIx", "__WP_ZTSPx", "__WP_ZTSPKx", "__WP_ZTSy", "__WP_ZTIy", "__WP_ZTSPy", "__WP_ZTSPKy", "__WP_ZTSn", "__WP_ZTIn", "__WP_ZTSPn", "__WP_ZTSPKn", "__WP_ZTSo", "__WP_ZTIo", "__WP_ZTSPo", "__WP_ZTSPKo", "__WP_ZTSDh", "__WP_ZTIDh", "__WP_ZTSPDh", "__WP_ZTSPKDh", "__WP_ZTSf", "__WP_ZTIf", "__WP_ZTSPf", "__WP_ZTSPKf", "__WP_ZTSd", "__WP_ZTId", "__WP_ZTSPd", "__WP_ZTSPKd", "__WP_ZTSe", "__WP_ZTIe", "__WP_ZTSPe", "__WP_ZTSPKe", "__WP_ZTSg", "__WP_ZTIg", "__WP_ZTSPg", "__WP_ZTSPKg", "__WP_ZTSDs", "__WP_ZTIDs", "__WP_ZTSPDs", "__WP_ZTSPKDs", "__WP_ZTSDi", "__WP_ZTIDi", "__WP_ZTSPDi", "__WP_ZTSPKDi", "__WP_ZTVN10__cxxabiv117__array_type_infoE", "__WP_ZTIN10__cxxabiv117__array_type_infoE", "__WP_ZTSN10__cxxabiv117__array_type_infoE", "__WP_ZTVN10__cxxabiv120__function_type_infoE", "__WP_ZTIN10__cxxabiv120__function_type_infoE", "__WP_ZTSN10__cxxabiv120__function_type_infoE", "__WP_ZTVN10__cxxabiv116__enum_type_infoE", "__WP_ZTIN10__cxxabiv116__enum_type_infoE", "__WP_ZTSN10__cxxabiv116__enum_type_infoE", "__WP_ZTVN10__cxxabiv117__class_type_infoE", "__WP_ZTVN10__cxxabiv121__vmi_class_type_infoE", "__WP_ZTIN10__cxxabiv121__vmi_class_type_infoE", "__WP_ZTSN10__cxxabiv121__vmi_class_type_infoE", "__WP_ZTVN10__cxxabiv117__pbase_type_infoE", "__WP_ZTVN10__cxxabiv129__pointer_to_member_type_infoE", "__WP_ZTIN10__cxxabiv129__pointer_to_member_type_infoE", "__WP_ZTSN10__cxxabiv129__pointer_to_member_type_infoE", "__WA_ZNSt9bad_allocC1Ev", "__WA_ZNSt9bad_allocD1Ev", "__WA_ZNSt20bad_array_new_lengthC1Ev", "__WA_ZNSt20bad_array_new_lengthD2Ev", "__WA_ZNSt20bad_array_new_lengthD1Ev", "__WA_ZNSt16bad_array_lengthC1Ev", "__WA_ZNSt16bad_array_lengthD2Ev", "__WA_ZNSt16bad_array_lengthD1Ev", "__WA_ZNSt9exceptionD1Ev", "__WA_ZNSt13bad_exceptionD2Ev", "__WA_ZNSt13bad_exceptionD1Ev", "__WA_ZNSt11logic_errorD1Ev", "__WA_ZNSt13runtime_errorD1Ev", "__WA_ZNSt12domain_errorD2Ev", "__WA_ZNSt12domain_errorD1Ev", "__WA_ZNSt16invalid_argumentD2Ev", "__WA_ZNSt16invalid_argumentD1Ev", "__WA_ZNSt12length_errorD2Ev", "__WA_ZNSt12length_errorD1Ev", "__WA_ZNSt12out_of_rangeD2Ev", "__WA_ZNSt12out_of_rangeD1Ev", "__WA_ZNSt11range_errorD2Ev", "__WA_ZNSt11range_errorD1Ev", "__WA_ZNSt14overflow_errorD2Ev", "__WA_ZNSt14overflow_errorD1Ev", "__WA_ZNSt15underflow_errorD2Ev", "__WA_ZNSt15underflow_errorD1Ev", "__WA_ZNSt9type_infoD1Ev", "__WA_ZNSt8bad_castC1Ev", "__WA_ZNSt8bad_castD1Ev", "__WA_ZNSt10bad_typeidC1Ev", "__WA_ZNSt10bad_typeidD1Ev",
