target datalayout = "e-p:32:32-i64:64-v128:32:128-n32-S128"
target triple = "asmjs-unknown-emscripten"

@.str__ZNSt3__212basic_stringIcNS_11char_traitsIcEENS_9allocatorIcEEEC1Ev = private unnamed_addr constant [69 x i8] c"__ZNSt3__212basic_stringIcNS_11char_traitsIcEENS_9allocatorIcEEEC2Ev\00", align 1
define i8* @_WA_ZNSt3__212basic_stringIcNS_11char_traitsIcEENS_9allocatorIcEEEC1Ev() unnamed_addr {
entry:
  %ptr = getelementptr inbounds [69 x i8], [69 x i8]* @.str__ZNSt3__212basic_stringIcNS_11char_traitsIcEENS_9allocatorIcEEEC1Ev, i32 0, i32 0
  ret i8* %ptr
}

@.str__ZNSt3__212basic_stringIcNS_11char_traitsIcEENS_9allocatorIcEEEC1ERKS4_ = private unnamed_addr constant [73 x i8] c"__ZNSt3__212basic_stringIcNS_11char_traitsIcEENS_9allocatorIcEEEC2ERKS4_\00", align 1
define i8* @_WA_ZNSt3__212basic_stringIcNS_11char_traitsIcEENS_9allocatorIcEEEC1ERKS4_() unnamed_addr {
entry:
  %ptr = getelementptr inbounds [73 x i8], [73 x i8]* @.str__ZNSt3__212basic_stringIcNS_11char_traitsIcEENS_9allocatorIcEEEC1ERKS4_, i32 0, i32 0
  ret i8* %ptr
}

@.str__ZNSt3__212basic_stringIcNS_11char_traitsIcEENS_9allocatorIcEEEC1ERKS5_ = private unnamed_addr constant [73 x i8] c"__ZNSt3__212basic_stringIcNS_11char_traitsIcEENS_9allocatorIcEEEC2ERKS5_\00", align 1
define i8* @_WA_ZNSt3__212basic_stringIcNS_11char_traitsIcEENS_9allocatorIcEEEC1ERKS5_() unnamed_addr {
entry:
  %ptr = getelementptr inbounds [73 x i8], [73 x i8]* @.str__ZNSt3__212basic_stringIcNS_11char_traitsIcEENS_9allocatorIcEEEC1ERKS5_, i32 0, i32 0
  ret i8* %ptr
}

@.str__ZNSt3__212basic_stringIcNS_11char_traitsIcEENS_9allocatorIcEEEC1ERKS5_RKS4_ = private unnamed_addr constant [78 x i8] c"__ZNSt3__212basic_stringIcNS_11char_traitsIcEENS_9allocatorIcEEEC2ERKS5_RKS4_\00", align 1
define i8* @_WA_ZNSt3__212basic_stringIcNS_11char_traitsIcEENS_9allocatorIcEEEC1ERKS5_RKS4_() unnamed_addr {
entry:
  %ptr = getelementptr inbounds [78 x i8], [78 x i8]* @.str__ZNSt3__212basic_stringIcNS_11char_traitsIcEENS_9allocatorIcEEEC1ERKS5_RKS4_, i32 0, i32 0
  ret i8* %ptr
}

@.str__ZNSt3__212basic_stringIcNS_11char_traitsIcEENS_9allocatorIcEEEC1EOS5_ = private unnamed_addr constant [72 x i8] c"__ZNSt3__212basic_stringIcNS_11char_traitsIcEENS_9allocatorIcEEEC2EOS5_\00", align 1
define i8* @_WA_ZNSt3__212basic_stringIcNS_11char_traitsIcEENS_9allocatorIcEEEC1EOS5_() unnamed_addr {
entry:
  %ptr = getelementptr inbounds [72 x i8], [72 x i8]* @.str__ZNSt3__212basic_stringIcNS_11char_traitsIcEENS_9allocatorIcEEEC1EOS5_, i32 0, i32 0
  ret i8* %ptr
}

@.str__ZNSt3__212basic_stringIcNS_11char_traitsIcEENS_9allocatorIcEEEC1EOS5_RKS4_ = private unnamed_addr constant [77 x i8] c"__ZNSt3__212basic_stringIcNS_11char_traitsIcEENS_9allocatorIcEEEC2EOS5_RKS4_\00", align 1
define i8* @_WA_ZNSt3__212basic_stringIcNS_11char_traitsIcEENS_9allocatorIcEEEC1EOS5_RKS4_() unnamed_addr {
entry:
  %ptr = getelementptr inbounds [77 x i8], [77 x i8]* @.str__ZNSt3__212basic_stringIcNS_11char_traitsIcEENS_9allocatorIcEEEC1EOS5_RKS4_, i32 0, i32 0
  ret i8* %ptr
}

@.str__ZNSt3__212basic_stringIcNS_11char_traitsIcEENS_9allocatorIcEEEC1EPKc = private unnamed_addr constant [71 x i8] c"__ZNSt3__212basic_stringIcNS_11char_traitsIcEENS_9allocatorIcEEEC2EPKc\00", align 1
define i8* @_WA_ZNSt3__212basic_stringIcNS_11char_traitsIcEENS_9allocatorIcEEEC1EPKc() unnamed_addr {
entry:
  %ptr = getelementptr inbounds [71 x i8], [71 x i8]* @.str__ZNSt3__212basic_stringIcNS_11char_traitsIcEENS_9allocatorIcEEEC1EPKc, i32 0, i32 0
  ret i8* %ptr
}

@.str__ZNSt3__212basic_stringIcNS_11char_traitsIcEENS_9allocatorIcEEEC1EPKcRKS4_ = private unnamed_addr constant [76 x i8] c"__ZNSt3__212basic_stringIcNS_11char_traitsIcEENS_9allocatorIcEEEC2EPKcRKS4_\00", align 1
define i8* @_WA_ZNSt3__212basic_stringIcNS_11char_traitsIcEENS_9allocatorIcEEEC1EPKcRKS4_() unnamed_addr {
entry:
  %ptr = getelementptr inbounds [76 x i8], [76 x i8]* @.str__ZNSt3__212basic_stringIcNS_11char_traitsIcEENS_9allocatorIcEEEC1EPKcRKS4_, i32 0, i32 0
  ret i8* %ptr
}

@.str__ZNSt3__212basic_stringIcNS_11char_traitsIcEENS_9allocatorIcEEEC1EPKcj = private unnamed_addr constant [72 x i8] c"__ZNSt3__212basic_stringIcNS_11char_traitsIcEENS_9allocatorIcEEEC2EPKcj\00", align 1
define i8* @_WA_ZNSt3__212basic_stringIcNS_11char_traitsIcEENS_9allocatorIcEEEC1EPKcj() unnamed_addr {
entry:
  %ptr = getelementptr inbounds [72 x i8], [72 x i8]* @.str__ZNSt3__212basic_stringIcNS_11char_traitsIcEENS_9allocatorIcEEEC1EPKcj, i32 0, i32 0
  ret i8* %ptr
}

@.str__ZNSt3__212basic_stringIcNS_11char_traitsIcEENS_9allocatorIcEEEC1EPKcjRKS4_ = private unnamed_addr constant [77 x i8] c"__ZNSt3__212basic_stringIcNS_11char_traitsIcEENS_9allocatorIcEEEC2EPKcjRKS4_\00", align 1
define i8* @_WA_ZNSt3__212basic_stringIcNS_11char_traitsIcEENS_9allocatorIcEEEC1EPKcjRKS4_() unnamed_addr {
entry:
  %ptr = getelementptr inbounds [77 x i8], [77 x i8]* @.str__ZNSt3__212basic_stringIcNS_11char_traitsIcEENS_9allocatorIcEEEC1EPKcjRKS4_, i32 0, i32 0
  ret i8* %ptr
}

@.str__ZNSt3__212basic_stringIcNS_11char_traitsIcEENS_9allocatorIcEEEC1Ejc = private unnamed_addr constant [70 x i8] c"__ZNSt3__212basic_stringIcNS_11char_traitsIcEENS_9allocatorIcEEEC2Ejc\00", align 1
define i8* @_WA_ZNSt3__212basic_stringIcNS_11char_traitsIcEENS_9allocatorIcEEEC1Ejc() unnamed_addr {
entry:
  %ptr = getelementptr inbounds [70 x i8], [70 x i8]* @.str__ZNSt3__212basic_stringIcNS_11char_traitsIcEENS_9allocatorIcEEEC1Ejc, i32 0, i32 0
  ret i8* %ptr
}

@.str__ZNSt3__212basic_stringIcNS_11char_traitsIcEENS_9allocatorIcEEEC1EjcRKS4_ = private unnamed_addr constant [75 x i8] c"__ZNSt3__212basic_stringIcNS_11char_traitsIcEENS_9allocatorIcEEEC2EjcRKS4_\00", align 1
define i8* @_WA_ZNSt3__212basic_stringIcNS_11char_traitsIcEENS_9allocatorIcEEEC1EjcRKS4_() unnamed_addr {
entry:
  %ptr = getelementptr inbounds [75 x i8], [75 x i8]* @.str__ZNSt3__212basic_stringIcNS_11char_traitsIcEENS_9allocatorIcEEEC1EjcRKS4_, i32 0, i32 0
  ret i8* %ptr
}

@.str__ZNSt3__212basic_stringIcNS_11char_traitsIcEENS_9allocatorIcEEEC1ERKS5_jjRKS4_ = private unnamed_addr constant [80 x i8] c"__ZNSt3__212basic_stringIcNS_11char_traitsIcEENS_9allocatorIcEEEC2ERKS5_jjRKS4_\00", align 1
define i8* @_WA_ZNSt3__212basic_stringIcNS_11char_traitsIcEENS_9allocatorIcEEEC1ERKS5_jjRKS4_() unnamed_addr {
entry:
  %ptr = getelementptr inbounds [80 x i8], [80 x i8]* @.str__ZNSt3__212basic_stringIcNS_11char_traitsIcEENS_9allocatorIcEEEC1ERKS5_jjRKS4_, i32 0, i32 0
  ret i8* %ptr
}

@.str__ZNSt3__212basic_stringIcNS_11char_traitsIcEENS_9allocatorIcEEEC1ERKS5_jRKS4_ = private unnamed_addr constant [79 x i8] c"__ZNSt3__212basic_stringIcNS_11char_traitsIcEENS_9allocatorIcEEEC2ERKS5_jRKS4_\00", align 1
define i8* @_WA_ZNSt3__212basic_stringIcNS_11char_traitsIcEENS_9allocatorIcEEEC1ERKS5_jRKS4_() unnamed_addr {
entry:
  %ptr = getelementptr inbounds [79 x i8], [79 x i8]* @.str__ZNSt3__212basic_stringIcNS_11char_traitsIcEENS_9allocatorIcEEEC1ERKS5_jRKS4_, i32 0, i32 0
  ret i8* %ptr
}

@.str__ZNSt3__212basic_stringIcNS_11char_traitsIcEENS_9allocatorIcEEEC1ESt16initializer_listIcE = private unnamed_addr constant [91 x i8] c"__ZNSt3__212basic_stringIcNS_11char_traitsIcEENS_9allocatorIcEEEC2ESt16initializer_listIcE\00", align 1
define i8* @_WA_ZNSt3__212basic_stringIcNS_11char_traitsIcEENS_9allocatorIcEEEC1ESt16initializer_listIcE() unnamed_addr {
entry:
  %ptr = getelementptr inbounds [91 x i8], [91 x i8]* @.str__ZNSt3__212basic_stringIcNS_11char_traitsIcEENS_9allocatorIcEEEC1ESt16initializer_listIcE, i32 0, i32 0
  ret i8* %ptr
}

@.str__ZNSt3__212basic_stringIcNS_11char_traitsIcEENS_9allocatorIcEEEC1ESt16initializer_listIcERKS4_ = private unnamed_addr constant [96 x i8] c"__ZNSt3__212basic_stringIcNS_11char_traitsIcEENS_9allocatorIcEEEC2ESt16initializer_listIcERKS4_\00", align 1
define i8* @_WA_ZNSt3__212basic_stringIcNS_11char_traitsIcEENS_9allocatorIcEEEC1ESt16initializer_listIcERKS4_() unnamed_addr {
entry:
  %ptr = getelementptr inbounds [96 x i8], [96 x i8]* @.str__ZNSt3__212basic_stringIcNS_11char_traitsIcEENS_9allocatorIcEEEC1ESt16initializer_listIcERKS4_, i32 0, i32 0
  ret i8* %ptr
}

@.str__ZNSt3__212basic_stringIcNS_11char_traitsIcEENS_9allocatorIcEEED1Ev = private unnamed_addr constant [69 x i8] c"__ZNSt3__212basic_stringIcNS_11char_traitsIcEENS_9allocatorIcEEED2Ev\00", align 1
define i8* @_WA_ZNSt3__212basic_stringIcNS_11char_traitsIcEENS_9allocatorIcEEED1Ev() unnamed_addr {
entry:
  %ptr = getelementptr inbounds [69 x i8], [69 x i8]* @.str__ZNSt3__212basic_stringIcNS_11char_traitsIcEENS_9allocatorIcEEED1Ev, i32 0, i32 0
  ret i8* %ptr
}

@.str__ZNSt3__212basic_stringIwNS_11char_traitsIwEENS_9allocatorIwEEEC1Ev = private unnamed_addr constant [69 x i8] c"__ZNSt3__212basic_stringIwNS_11char_traitsIwEENS_9allocatorIwEEEC2Ev\00", align 1
define i8* @_WA_ZNSt3__212basic_stringIwNS_11char_traitsIwEENS_9allocatorIwEEEC1Ev() unnamed_addr {
entry:
  %ptr = getelementptr inbounds [69 x i8], [69 x i8]* @.str__ZNSt3__212basic_stringIwNS_11char_traitsIwEENS_9allocatorIwEEEC1Ev, i32 0, i32 0
  ret i8* %ptr
}

@.str__ZNSt3__212basic_stringIwNS_11char_traitsIwEENS_9allocatorIwEEEC1ERKS4_ = private unnamed_addr constant [73 x i8] c"__ZNSt3__212basic_stringIwNS_11char_traitsIwEENS_9allocatorIwEEEC2ERKS4_\00", align 1
define i8* @_WA_ZNSt3__212basic_stringIwNS_11char_traitsIwEENS_9allocatorIwEEEC1ERKS4_() unnamed_addr {
entry:
  %ptr = getelementptr inbounds [73 x i8], [73 x i8]* @.str__ZNSt3__212basic_stringIwNS_11char_traitsIwEENS_9allocatorIwEEEC1ERKS4_, i32 0, i32 0
  ret i8* %ptr
}

@.str__ZNSt3__212basic_stringIwNS_11char_traitsIwEENS_9allocatorIwEEEC1ERKS5_ = private unnamed_addr constant [73 x i8] c"__ZNSt3__212basic_stringIwNS_11char_traitsIwEENS_9allocatorIwEEEC2ERKS5_\00", align 1
define i8* @_WA_ZNSt3__212basic_stringIwNS_11char_traitsIwEENS_9allocatorIwEEEC1ERKS5_() unnamed_addr {
entry:
  %ptr = getelementptr inbounds [73 x i8], [73 x i8]* @.str__ZNSt3__212basic_stringIwNS_11char_traitsIwEENS_9allocatorIwEEEC1ERKS5_, i32 0, i32 0
  ret i8* %ptr
}

@.str__ZNSt3__212basic_stringIwNS_11char_traitsIwEENS_9allocatorIwEEEC1ERKS5_RKS4_ = private unnamed_addr constant [78 x i8] c"__ZNSt3__212basic_stringIwNS_11char_traitsIwEENS_9allocatorIwEEEC2ERKS5_RKS4_\00", align 1
define i8* @_WA_ZNSt3__212basic_stringIwNS_11char_traitsIwEENS_9allocatorIwEEEC1ERKS5_RKS4_() unnamed_addr {
entry:
  %ptr = getelementptr inbounds [78 x i8], [78 x i8]* @.str__ZNSt3__212basic_stringIwNS_11char_traitsIwEENS_9allocatorIwEEEC1ERKS5_RKS4_, i32 0, i32 0
  ret i8* %ptr
}

@.str__ZNSt3__212basic_stringIwNS_11char_traitsIwEENS_9allocatorIwEEEC1EOS5_ = private unnamed_addr constant [72 x i8] c"__ZNSt3__212basic_stringIwNS_11char_traitsIwEENS_9allocatorIwEEEC2EOS5_\00", align 1
define i8* @_WA_ZNSt3__212basic_stringIwNS_11char_traitsIwEENS_9allocatorIwEEEC1EOS5_() unnamed_addr {
entry:
  %ptr = getelementptr inbounds [72 x i8], [72 x i8]* @.str__ZNSt3__212basic_stringIwNS_11char_traitsIwEENS_9allocatorIwEEEC1EOS5_, i32 0, i32 0
  ret i8* %ptr
}

@.str__ZNSt3__212basic_stringIwNS_11char_traitsIwEENS_9allocatorIwEEEC1EOS5_RKS4_ = private unnamed_addr constant [77 x i8] c"__ZNSt3__212basic_stringIwNS_11char_traitsIwEENS_9allocatorIwEEEC2EOS5_RKS4_\00", align 1
define i8* @_WA_ZNSt3__212basic_stringIwNS_11char_traitsIwEENS_9allocatorIwEEEC1EOS5_RKS4_() unnamed_addr {
entry:
  %ptr = getelementptr inbounds [77 x i8], [77 x i8]* @.str__ZNSt3__212basic_stringIwNS_11char_traitsIwEENS_9allocatorIwEEEC1EOS5_RKS4_, i32 0, i32 0
  ret i8* %ptr
}

@.str__ZNSt3__212basic_stringIwNS_11char_traitsIwEENS_9allocatorIwEEEC1EPKw = private unnamed_addr constant [71 x i8] c"__ZNSt3__212basic_stringIwNS_11char_traitsIwEENS_9allocatorIwEEEC2EPKw\00", align 1
define i8* @_WA_ZNSt3__212basic_stringIwNS_11char_traitsIwEENS_9allocatorIwEEEC1EPKw() unnamed_addr {
entry:
  %ptr = getelementptr inbounds [71 x i8], [71 x i8]* @.str__ZNSt3__212basic_stringIwNS_11char_traitsIwEENS_9allocatorIwEEEC1EPKw, i32 0, i32 0
  ret i8* %ptr
}

@.str__ZNSt3__212basic_stringIwNS_11char_traitsIwEENS_9allocatorIwEEEC1EPKwRKS4_ = private unnamed_addr constant [76 x i8] c"__ZNSt3__212basic_stringIwNS_11char_traitsIwEENS_9allocatorIwEEEC2EPKwRKS4_\00", align 1
define i8* @_WA_ZNSt3__212basic_stringIwNS_11char_traitsIwEENS_9allocatorIwEEEC1EPKwRKS4_() unnamed_addr {
entry:
  %ptr = getelementptr inbounds [76 x i8], [76 x i8]* @.str__ZNSt3__212basic_stringIwNS_11char_traitsIwEENS_9allocatorIwEEEC1EPKwRKS4_, i32 0, i32 0
  ret i8* %ptr
}

@.str__ZNSt3__212basic_stringIwNS_11char_traitsIwEENS_9allocatorIwEEEC1EPKwj = private unnamed_addr constant [72 x i8] c"__ZNSt3__212basic_stringIwNS_11char_traitsIwEENS_9allocatorIwEEEC2EPKwj\00", align 1
define i8* @_WA_ZNSt3__212basic_stringIwNS_11char_traitsIwEENS_9allocatorIwEEEC1EPKwj() unnamed_addr {
entry:
  %ptr = getelementptr inbounds [72 x i8], [72 x i8]* @.str__ZNSt3__212basic_stringIwNS_11char_traitsIwEENS_9allocatorIwEEEC1EPKwj, i32 0, i32 0
  ret i8* %ptr
}

@.str__ZNSt3__212basic_stringIwNS_11char_traitsIwEENS_9allocatorIwEEEC1EPKwjRKS4_ = private unnamed_addr constant [77 x i8] c"__ZNSt3__212basic_stringIwNS_11char_traitsIwEENS_9allocatorIwEEEC2EPKwjRKS4_\00", align 1
define i8* @_WA_ZNSt3__212basic_stringIwNS_11char_traitsIwEENS_9allocatorIwEEEC1EPKwjRKS4_() unnamed_addr {
entry:
  %ptr = getelementptr inbounds [77 x i8], [77 x i8]* @.str__ZNSt3__212basic_stringIwNS_11char_traitsIwEENS_9allocatorIwEEEC1EPKwjRKS4_, i32 0, i32 0
  ret i8* %ptr
}

@.str__ZNSt3__212basic_stringIwNS_11char_traitsIwEENS_9allocatorIwEEEC1Ejw = private unnamed_addr constant [70 x i8] c"__ZNSt3__212basic_stringIwNS_11char_traitsIwEENS_9allocatorIwEEEC2Ejw\00", align 1
define i8* @_WA_ZNSt3__212basic_stringIwNS_11char_traitsIwEENS_9allocatorIwEEEC1Ejw() unnamed_addr {
entry:
  %ptr = getelementptr inbounds [70 x i8], [70 x i8]* @.str__ZNSt3__212basic_stringIwNS_11char_traitsIwEENS_9allocatorIwEEEC1Ejw, i32 0, i32 0
  ret i8* %ptr
}

@.str__ZNSt3__212basic_stringIwNS_11char_traitsIwEENS_9allocatorIwEEEC1EjwRKS4_ = private unnamed_addr constant [75 x i8] c"__ZNSt3__212basic_stringIwNS_11char_traitsIwEENS_9allocatorIwEEEC2EjwRKS4_\00", align 1
define i8* @_WA_ZNSt3__212basic_stringIwNS_11char_traitsIwEENS_9allocatorIwEEEC1EjwRKS4_() unnamed_addr {
entry:
  %ptr = getelementptr inbounds [75 x i8], [75 x i8]* @.str__ZNSt3__212basic_stringIwNS_11char_traitsIwEENS_9allocatorIwEEEC1EjwRKS4_, i32 0, i32 0
  ret i8* %ptr
}

@.str__ZNSt3__212basic_stringIwNS_11char_traitsIwEENS_9allocatorIwEEEC1ERKS5_jjRKS4_ = private unnamed_addr constant [80 x i8] c"__ZNSt3__212basic_stringIwNS_11char_traitsIwEENS_9allocatorIwEEEC2ERKS5_jjRKS4_\00", align 1
define i8* @_WA_ZNSt3__212basic_stringIwNS_11char_traitsIwEENS_9allocatorIwEEEC1ERKS5_jjRKS4_() unnamed_addr {
entry:
  %ptr = getelementptr inbounds [80 x i8], [80 x i8]* @.str__ZNSt3__212basic_stringIwNS_11char_traitsIwEENS_9allocatorIwEEEC1ERKS5_jjRKS4_, i32 0, i32 0
  ret i8* %ptr
}

@.str__ZNSt3__212basic_stringIwNS_11char_traitsIwEENS_9allocatorIwEEEC1ERKS5_jRKS4_ = private unnamed_addr constant [79 x i8] c"__ZNSt3__212basic_stringIwNS_11char_traitsIwEENS_9allocatorIwEEEC2ERKS5_jRKS4_\00", align 1
define i8* @_WA_ZNSt3__212basic_stringIwNS_11char_traitsIwEENS_9allocatorIwEEEC1ERKS5_jRKS4_() unnamed_addr {
entry:
  %ptr = getelementptr inbounds [79 x i8], [79 x i8]* @.str__ZNSt3__212basic_stringIwNS_11char_traitsIwEENS_9allocatorIwEEEC1ERKS5_jRKS4_, i32 0, i32 0
  ret i8* %ptr
}

@.str__ZNSt3__212basic_stringIwNS_11char_traitsIwEENS_9allocatorIwEEEC1ESt16initializer_listIwE = private unnamed_addr constant [91 x i8] c"__ZNSt3__212basic_stringIwNS_11char_traitsIwEENS_9allocatorIwEEEC2ESt16initializer_listIwE\00", align 1
define i8* @_WA_ZNSt3__212basic_stringIwNS_11char_traitsIwEENS_9allocatorIwEEEC1ESt16initializer_listIwE() unnamed_addr {
entry:
  %ptr = getelementptr inbounds [91 x i8], [91 x i8]* @.str__ZNSt3__212basic_stringIwNS_11char_traitsIwEENS_9allocatorIwEEEC1ESt16initializer_listIwE, i32 0, i32 0
  ret i8* %ptr
}

@.str__ZNSt3__212basic_stringIwNS_11char_traitsIwEENS_9allocatorIwEEEC1ESt16initializer_listIwERKS4_ = private unnamed_addr constant [96 x i8] c"__ZNSt3__212basic_stringIwNS_11char_traitsIwEENS_9allocatorIwEEEC2ESt16initializer_listIwERKS4_\00", align 1
define i8* @_WA_ZNSt3__212basic_stringIwNS_11char_traitsIwEENS_9allocatorIwEEEC1ESt16initializer_listIwERKS4_() unnamed_addr {
entry:
  %ptr = getelementptr inbounds [96 x i8], [96 x i8]* @.str__ZNSt3__212basic_stringIwNS_11char_traitsIwEENS_9allocatorIwEEEC1ESt16initializer_listIwERKS4_, i32 0, i32 0
  ret i8* %ptr
}

@.str__ZNSt3__212basic_stringIwNS_11char_traitsIwEENS_9allocatorIwEEED1Ev = private unnamed_addr constant [69 x i8] c"__ZNSt3__212basic_stringIwNS_11char_traitsIwEENS_9allocatorIwEEED2Ev\00", align 1
define i8* @_WA_ZNSt3__212basic_stringIwNS_11char_traitsIwEENS_9allocatorIwEEED1Ev() unnamed_addr {
entry:
  %ptr = getelementptr inbounds [69 x i8], [69 x i8]* @.str__ZNSt3__212basic_stringIwNS_11char_traitsIwEENS_9allocatorIwEEED1Ev, i32 0, i32 0
  ret i8* %ptr
}

; exports: "__ZNKSt3__221__basic_string_commonILb1EE20__throw_length_errorEv", "__ZNKSt3__221__basic_string_commonILb1EE20__throw_out_of_rangeEv", "__ZNSt3__212basic_stringIcNS_11char_traitsIcEENS_9allocatorIcEEEC2Ev", "__ZNSt3__212basic_stringIcNS_11char_traitsIcEENS_9allocatorIcEEE6__zeroEv", "__ZNSt3__212basic_stringIcNS_11char_traitsIcEENS_9allocatorIcEEEC2ERKS4_", "__ZNSt3__212basic_stringIcNS_11char_traitsIcEENS_9allocatorIcEEEC2ERKS5_", "__ZNKSt3__212basic_stringIcNS_11char_traitsIcEENS_9allocatorIcEEE7__allocEv", "__ZNKSt3__212basic_stringIcNS_11char_traitsIcEENS_9allocatorIcEEE9__is_longEv", "__ZNSt3__212basic_stringIcNS_11char_traitsIcEENS_9allocatorIcEEE6__initEPKcj", "__ZNKSt3__212basic_stringIcNS_11char_traitsIcEENS_9allocatorIcEEE18__get_long_pointerEv", "__ZNKSt3__212basic_stringIcNS_11char_traitsIcEENS_9allocatorIcEEE15__get_long_sizeEv", "__ZNSt3__212basic_stringIcNS_11char_traitsIcEENS_9allocatorIcEEEC2ERKS5_RKS4_", "__ZNSt3__212basic_stringIcNS_11char_traitsIcEENS_9allocatorIcEEEC2EOS5_", "__ZNSt3__212basic_stringIcNS_11char_traitsIcEENS_9allocatorIcEEEC2EOS5_RKS4_", "__ZNSt3__212basic_stringIcNS_11char_traitsIcEENS_9allocatorIcEEE7__allocEv", "__ZNSt3__212basic_stringIcNS_11char_traitsIcEENS_9allocatorIcEEE18__get_long_pointerEv", "__ZNSt3__212basic_stringIcNS_11char_traitsIcEENS_9allocatorIcEEEC2EPKc", "__ZNSt3__211char_traitsIcE6lengthEPKc", "__ZNSt3__212basic_stringIcNS_11char_traitsIcEENS_9allocatorIcEEEC2EPKcRKS4_", "__ZNSt3__212basic_stringIcNS_11char_traitsIcEENS_9allocatorIcEEEC2EPKcj", "__ZNSt3__212basic_stringIcNS_11char_traitsIcEENS_9allocatorIcEEEC2EPKcjRKS4_", "__ZNSt3__212basic_stringIcNS_11char_traitsIcEENS_9allocatorIcEEEC2Ejc", "__ZNSt3__212basic_stringIcNS_11char_traitsIcEENS_9allocatorIcEEE6__initEjc", "__ZNSt3__212basic_stringIcNS_11char_traitsIcEENS_9allocatorIcEEEC2EjcRKS4_", "__ZNSt3__212basic_stringIcNS_11char_traitsIcEENS_9allocatorIcEEEC2ERKS5_jjRKS4_", "__ZNKSt3__212basic_stringIcNS_11char_traitsIcEENS_9allocatorIcEEE4sizeEv", "__ZNKSt3__212basic_stringIcNS_11char_traitsIcEENS_9allocatorIcEEE4dataEv", "__ZNSt3__212basic_stringIcNS_11char_traitsIcEENS_9allocatorIcEEEC2ERKS5_jRKS4_", "__ZNSt3__212basic_stringIcNS_11char_traitsIcEENS_9allocatorIcEEEC2ESt16initializer_listIcE", "__ZNSt3__212basic_stringIcNS_11char_traitsIcEENS_9allocatorIcEEE6__initIPKcEENS_9enable_ifIXsr21__is_forward_iteratorIT_EE5valueEvE4typeESA_SA_", "__ZNSt3__212basic_stringIcNS_11char_traitsIcEENS_9allocatorIcEEEC2ESt16initializer_listIcERKS4_", "__ZNSt3__212basic_stringIcNS_11char_traitsIcEENS_9allocatorIcEEED2Ev", "__ZNKSt3__212basic_stringIcNS_11char_traitsIcEENS_9allocatorIcEEE14__get_long_capEv", "__ZNSt3__212basic_stringIcNS_11char_traitsIcEENS_9allocatorIcEEEaSERKS5_", "__ZNSt3__212basic_stringIcNS_11char_traitsIcEENS_9allocatorIcEEE19__copy_assign_allocERKS5_", "__ZNSt3__212basic_stringIcNS_11char_traitsIcEENS_9allocatorIcEEE6assignEPKcj", "__ZNSt3__212basic_stringIcNS_11char_traitsIcEENS_9allocatorIcEEEaSEOS5_", "__ZNSt3__212basic_stringIcNS_11char_traitsIcEENS_9allocatorIcEEE13__move_assignERS5_NS_17integral_constantIbLb1EEE", "__ZNSt3__212basic_stringIcNS_11char_traitsIcEENS_9allocatorIcEEEaSEPKc", "__ZNSt3__212basic_stringIcNS_11char_traitsIcEENS_9allocatorIcEEE6assignEPKc", "__ZNSt3__212basic_stringIcNS_11char_traitsIcEENS_9allocatorIcEEEaSEc", "__ZNSt3__212basic_stringIcNS_11char_traitsIcEENS_9allocatorIcEEE15__set_long_sizeEj", "__ZNSt3__212basic_stringIcNS_11char_traitsIcEENS_9allocatorIcEEE19__get_short_pointerEv", "__ZNSt3__212basic_stringIcNS_11char_traitsIcEENS_9allocatorIcEEE16__set_short_sizeEj", "__ZNSt3__211char_traitsIcE6assignERcRKc", "__ZNSt3__212basic_stringIcNS_11char_traitsIcEENS_9allocatorIcEEE27__invalidate_iterators_pastEj", "__ZNSt3__212basic_stringIcNS_11char_traitsIcEENS_9allocatorIcEEEaSESt16initializer_listIcE", "__ZNSt3__212basic_stringIcNS_11char_traitsIcEENS_9allocatorIcEEE5beginEv", "__ZNSt3__212basic_stringIcNS_11char_traitsIcEENS_9allocatorIcEEE13__get_pointerEv", "__ZNKSt3__212basic_stringIcNS_11char_traitsIcEENS_9allocatorIcEEE5beginEv", "__ZNKSt3__212basic_stringIcNS_11char_traitsIcEENS_9allocatorIcEEE13__get_pointerEv", "__ZNSt3__212basic_stringIcNS_11char_traitsIcEENS_9allocatorIcEEE3endEv", "__ZNKSt3__212basic_stringIcNS_11char_traitsIcEENS_9allocatorIcEEE3endEv", "__ZNSt3__212basic_stringIcNS_11char_traitsIcEENS_9allocatorIcEEE6rbeginEv", "__ZNKSt3__212basic_stringIcNS_11char_traitsIcEENS_9allocatorIcEEE6rbeginEv", "__ZNSt3__212basic_stringIcNS_11char_traitsIcEENS_9allocatorIcEEE4rendEv", "__ZNKSt3__212basic_stringIcNS_11char_traitsIcEENS_9allocatorIcEEE4rendEv", "__ZNKSt3__212basic_stringIcNS_11char_traitsIcEENS_9allocatorIcEEE6cbeginEv", "__ZNKSt3__212basic_stringIcNS_11char_traitsIcEENS_9allocatorIcEEE4cendEv", "__ZNKSt3__212basic_stringIcNS_11char_traitsIcEENS_9allocatorIcEEE7crbeginEv", "__ZNKSt3__212basic_stringIcNS_11char_traitsIcEENS_9allocatorIcEEE5crendEv", "__ZNKSt3__212basic_stringIcNS_11char_traitsIcEENS_9allocatorIcEEE16__get_short_sizeEv", "__ZNKSt3__212basic_stringIcNS_11char_traitsIcEENS_9allocatorIcEEE6lengthEv", "__ZNKSt3__212basic_stringIcNS_11char_traitsIcEENS_9allocatorIcEEE8max_sizeEv", "__ZNKSt3__212basic_stringIcNS_11char_traitsIcEENS_9allocatorIcEEE8capacityEv", "__ZNSt3__212basic_stringIcNS_11char_traitsIcEENS_9allocatorIcEEE6resizeEjc", "__ZNSt3__212basic_stringIcNS_11char_traitsIcEENS_9allocatorIcEEE6appendEjc", "__ZNSt3__212basic_stringIcNS_11char_traitsIcEENS_9allocatorIcEEE14__erase_to_endEj", "__ZNSt3__212basic_stringIcNS_11char_traitsIcEENS_9allocatorIcEEE6resizeEj", "__ZNSt3__212basic_stringIcNS_11char_traitsIcEENS_9allocatorIcEEE7reserveEj", "__ZNSt3__212basic_stringIcNS_11char_traitsIcEENS_9allocatorIcEEE11__recommendEj", "__ZNSt3__211char_traitsIcE4copyEPcPKcj", "__ZNSt3__212basic_stringIcNS_11char_traitsIcEENS_9allocatorIcEEE14__set_long_capEj", "__ZNSt3__212basic_stringIcNS_11char_traitsIcEENS_9allocatorIcEEE18__set_long_pointerEPc", "__ZNSt3__212basic_stringIcNS_11char_traitsIcEENS_9allocatorIcEEE26__invalidate_all_iteratorsEv", "__ZNSt3__212basic_stringIcNS_11char_traitsIcEENS_9allocatorIcEEE13shrink_to_fitEv", "__ZNSt3__212basic_stringIcNS_11char_traitsIcEENS_9allocatorIcEEE5clearEv", "__ZNKSt3__212basic_stringIcNS_11char_traitsIcEENS_9allocatorIcEEE5emptyEv", "__ZNKSt3__212basic_stringIcNS_11char_traitsIcEENS_9allocatorIcEEEixEj", "__ZNSt3__212basic_stringIcNS_11char_traitsIcEENS_9allocatorIcEEEixEj", "__ZNKSt3__212basic_stringIcNS_11char_traitsIcEENS_9allocatorIcEEE2atEj", "__ZNSt3__212basic_stringIcNS_11char_traitsIcEENS_9allocatorIcEEE2atEj", "__ZNSt3__212basic_stringIcNS_11char_traitsIcEENS_9allocatorIcEEEpLERKS5_", "__ZNSt3__212basic_stringIcNS_11char_traitsIcEENS_9allocatorIcEEE6appendERKS5_", "__ZNSt3__212basic_stringIcNS_11char_traitsIcEENS_9allocatorIcEEEpLEPKc", "__ZNSt3__212basic_stringIcNS_11char_traitsIcEENS_9allocatorIcEEE6appendEPKc", "__ZNSt3__212basic_stringIcNS_11char_traitsIcEENS_9allocatorIcEEEpLEc", "__ZNSt3__212basic_stringIcNS_11char_traitsIcEENS_9allocatorIcEEE9push_backEc", "__ZNSt3__212basic_stringIcNS_11char_traitsIcEENS_9allocatorIcEEEpLESt16initializer_listIcE", "__ZNSt3__212basic_stringIcNS_11char_traitsIcEENS_9allocatorIcEEE6appendESt16initializer_listIcE", "__ZNSt3__212basic_stringIcNS_11char_traitsIcEENS_9allocatorIcEEE6appendEPKcj", "__ZNSt3__212basic_stringIcNS_11char_traitsIcEENS_9allocatorIcEEE6appendERKS5_jj", "__ZNSt3__212basic_stringIcNS_11char_traitsIcEENS_9allocatorIcEEE10__set_sizeEj", "__ZNSt3__212basic_stringIcNS_11char_traitsIcEENS_9allocatorIcEEE21__grow_by_and_replaceEjjjjjjPKc", "__ZNSt3__212basic_stringIcNS_11char_traitsIcEENS_9allocatorIcEEE9__grow_byEjjjjjj", "__ZNSt3__211char_traitsIcE6assignEPcjc", "__ZNSt3__212basic_stringIcNS_11char_traitsIcEENS_9allocatorIcEEE8pop_backEv", "__ZNSt3__212basic_stringIcNS_11char_traitsIcEENS_9allocatorIcEEE5frontEv", "__ZNKSt3__212basic_stringIcNS_11char_traitsIcEENS_9allocatorIcEEE5frontEv", "__ZNSt3__212basic_stringIcNS_11char_traitsIcEENS_9allocatorIcEEE4backEv", "__ZNKSt3__212basic_stringIcNS_11char_traitsIcEENS_9allocatorIcEEE4backEv", "__ZNSt3__212basic_stringIcNS_11char_traitsIcEENS_9allocatorIcEEE6assignERKS5_", "__ZNSt3__212basic_stringIcNS_11char_traitsIcEENS_9allocatorIcEEE6assignEOS5_", "__ZNSt3__212basic_stringIcNS_11char_traitsIcEENS_9allocatorIcEEE6assignERKS5_jj", "__ZNSt3__211char_traitsIcE4moveEPcPKcj", "__ZNSt3__212basic_stringIcNS_11char_traitsIcEENS_9allocatorIcEEE6assignEjc", "__ZNSt3__212basic_stringIcNS_11char_traitsIcEENS_9allocatorIcEEE6assignESt16initializer_listIcE", "__ZNSt3__212basic_stringIcNS_11char_traitsIcEENS_9allocatorIcEEE6insertEjRKS5_", "__ZNSt3__212basic_stringIcNS_11char_traitsIcEENS_9allocatorIcEEE6insertEjPKcj", "__ZNSt3__212basic_stringIcNS_11char_traitsIcEENS_9allocatorIcEEE6insertEjRKS5_jj", "__ZNSt3__212basic_stringIcNS_11char_traitsIcEENS_9allocatorIcEEE6insertEjPKc", "__ZNSt3__212basic_stringIcNS_11char_traitsIcEENS_9allocatorIcEEE6insertEjjc", "__ZNSt3__212basic_stringIcNS_11char_traitsIcEENS_9allocatorIcEEE6insertENS_11__wrap_iterIPKcEEc", "__ZNSt3__212basic_stringIcNS_11char_traitsIcEENS_9allocatorIcEEE6insertENS_11__wrap_iterIPKcEEjc", "__ZNSt3__212basic_stringIcNS_11char_traitsIcEENS_9allocatorIcEEE6insertENS_11__wrap_iterIPKcEESt16initializer_listIcE", "__ZNSt3__212basic_stringIcNS_11char_traitsIcEENS_9allocatorIcEEE6insertIPKcEENS_9enable_ifIXaasr21__is_forward_iteratorIT_EE5valuesr38__libcpp_string_gets_noexcept_iteratorISA_EE5valueENS_11__wrap_iterIPcEEE4typeENSB_IS8_EESA_SA_", "__ZNSt3__212basic_stringIcNS_11char_traitsIcEENS_9allocatorIcEEE5eraseEjj", "__ZNSt3__212basic_stringIcNS_11char_traitsIcEENS_9allocatorIcEEE5eraseENS_11__wrap_iterIPKcEE", "__ZNSt3__212basic_stringIcNS_11char_traitsIcEENS_9allocatorIcEEE5eraseENS_11__wrap_iterIPKcEES9_", "__ZNSt3__212basic_stringIcNS_11char_traitsIcEENS_9allocatorIcEEE7replaceEjjRKS5_", "__ZNSt3__212basic_stringIcNS_11char_traitsIcEENS_9allocatorIcEEE7replaceEjjPKcj", "__ZNSt3__212basic_stringIcNS_11char_traitsIcEENS_9allocatorIcEEE7replaceEjjRKS5_jj", "__ZNSt3__212basic_stringIcNS_11char_traitsIcEENS_9allocatorIcEEE7replaceEjjPKc", "__ZNSt3__212basic_stringIcNS_11char_traitsIcEENS_9allocatorIcEEE7replaceEjjjc", "__ZNSt3__212basic_stringIcNS_11char_traitsIcEENS_9allocatorIcEEE7replaceENS_11__wrap_iterIPKcEES9_RKS5_", "__ZNSt3__212basic_stringIcNS_11char_traitsIcEENS_9allocatorIcEEE7replaceENS_11__wrap_iterIPKcEES9_S8_j", "__ZNSt3__212basic_stringIcNS_11char_traitsIcEENS_9allocatorIcEEE7replaceENS_11__wrap_iterIPKcEES9_S8_", "__ZNSt3__212basic_stringIcNS_11char_traitsIcEENS_9allocatorIcEEE7replaceENS_11__wrap_iterIPKcEES9_jc", "__ZNSt3__212basic_stringIcNS_11char_traitsIcEENS_9allocatorIcEEE7replaceENS_11__wrap_iterIPKcEES9_St16initializer_listIcE", "__ZNSt3__212basic_stringIcNS_11char_traitsIcEENS_9allocatorIcEEE7replaceIPKcEENS_9enable_ifIXsr19__is_input_iteratorIT_EE5valueERS5_E4typeENS_11__wrap_iterIS8_EESF_SA_SA_", "__ZNKSt3__212basic_stringIcNS_11char_traitsIcEENS_9allocatorIcEEE4copyEPcjj", "__ZNKSt3__212basic_stringIcNS_11char_traitsIcEENS_9allocatorIcEEE6substrEjj", "__ZNSt3__212basic_stringIcNS_11char_traitsIcEENS_9allocatorIcEEE4swapERS5_", "__ZNKSt3__212basic_stringIcNS_11char_traitsIcEENS_9allocatorIcEEE5c_strEv", "__ZNKSt3__212basic_stringIcNS_11char_traitsIcEENS_9allocatorIcEEE13get_allocatorEv", "__ZNKSt3__212basic_stringIcNS_11char_traitsIcEENS_9allocatorIcEEE4findERKS5_j", "__ZNKSt3__212basic_stringIcNS_11char_traitsIcEENS_9allocatorIcEEE4findEPKcjj", "__ZNKSt3__212basic_stringIcNS_11char_traitsIcEENS_9allocatorIcEEE4findEPKcj", "__ZNKSt3__212basic_stringIcNS_11char_traitsIcEENS_9allocatorIcEEE4findEcj", "__ZNKSt3__212basic_stringIcNS_11char_traitsIcEENS_9allocatorIcEEE5rfindERKS5_j", "__ZNKSt3__212basic_stringIcNS_11char_traitsIcEENS_9allocatorIcEEE5rfindEPKcjj", "__ZNKSt3__212basic_stringIcNS_11char_traitsIcEENS_9allocatorIcEEE5rfindEPKcj", "__ZNKSt3__212basic_stringIcNS_11char_traitsIcEENS_9allocatorIcEEE5rfindEcj", "__ZNKSt3__212basic_stringIcNS_11char_traitsIcEENS_9allocatorIcEEE13find_first_ofERKS5_j", "__ZNKSt3__212basic_stringIcNS_11char_traitsIcEENS_9allocatorIcEEE13find_first_ofEPKcjj", "__ZNKSt3__212basic_stringIcNS_11char_traitsIcEENS_9allocatorIcEEE13find_first_ofEPKcj", "__ZNKSt3__212basic_stringIcNS_11char_traitsIcEENS_9allocatorIcEEE13find_first_ofEcj", "__ZNKSt3__212basic_stringIcNS_11char_traitsIcEENS_9allocatorIcEEE12find_last_ofERKS5_j", "__ZNKSt3__212basic_stringIcNS_11char_traitsIcEENS_9allocatorIcEEE12find_last_ofEPKcjj", "__ZNKSt3__212basic_stringIcNS_11char_traitsIcEENS_9allocatorIcEEE12find_last_ofEPKcj", "__ZNKSt3__212basic_stringIcNS_11char_traitsIcEENS_9allocatorIcEEE12find_last_ofEcj", "__ZNKSt3__212basic_stringIcNS_11char_traitsIcEENS_9allocatorIcEEE17find_first_not_ofERKS5_j", "__ZNKSt3__212basic_stringIcNS_11char_traitsIcEENS_9allocatorIcEEE17find_first_not_ofEPKcjj", "__ZNKSt3__212basic_stringIcNS_11char_traitsIcEENS_9allocatorIcEEE17find_first_not_ofEPKcj", "__ZNKSt3__212basic_stringIcNS_11char_traitsIcEENS_9allocatorIcEEE17find_first_not_ofEcj", "__ZNKSt3__212basic_stringIcNS_11char_traitsIcEENS_9allocatorIcEEE16find_last_not_ofERKS5_j", "__ZNKSt3__212basic_stringIcNS_11char_traitsIcEENS_9allocatorIcEEE16find_last_not_ofEPKcjj", "__ZNKSt3__212basic_stringIcNS_11char_traitsIcEENS_9allocatorIcEEE16find_last_not_ofEPKcj", "__ZNKSt3__212basic_stringIcNS_11char_traitsIcEENS_9allocatorIcEEE16find_last_not_ofEcj", "__ZNKSt3__212basic_stringIcNS_11char_traitsIcEENS_9allocatorIcEEE7compareERKS5_", "__ZNSt3__211char_traitsIcE7compareEPKcS3_j", "__ZNKSt3__212basic_stringIcNS_11char_traitsIcEENS_9allocatorIcEEE7compareEjjRKS5_", "__ZNKSt3__212basic_stringIcNS_11char_traitsIcEENS_9allocatorIcEEE7compareEjjPKcj", "__ZNKSt3__212basic_stringIcNS_11char_traitsIcEENS_9allocatorIcEEE7compareEjjRKS5_jj", "__ZNKSt3__212basic_stringIcNS_11char_traitsIcEENS_9allocatorIcEEE7compareEPKc", "__ZNKSt3__212basic_stringIcNS_11char_traitsIcEENS_9allocatorIcEEE7compareEjjPKc", "__ZNKSt3__212basic_stringIcNS_11char_traitsIcEENS_9allocatorIcEEE12__invariantsEv", "__ZNKSt3__212basic_stringIcNS_11char_traitsIcEENS_9allocatorIcEEE19__get_short_point", "__ZNSt3__212basic_stringIcNS_11char_traitsIcEENS_9allocatorIcEEE6__initEPKcjj", "__ZNSt3__212basic_stringIcNS_11char_traitsIcEENS_9allocatorIcEEE19__copy_assign_allocERKS5_NS_17integral_constantIbLb0EEE", "__ZNSt3__212basic_stringIcNS_11char_traitsIcEENS_9allocatorIcEEE19__copy_assign_allocERKS5_NS_17integral_constantIbLb1EEE", "__ZNSt3__212basic_stringIcNS_11char_traitsIcEENS_9allocatorIcEEE13__move_assignERS5_NS_17integral_constantIbLb0EEE", "__ZNSt3__212basic_stringIcNS_11char_traitsIcEENS_9allocatorIcEEE19__move_assign_allocERS5_", "__ZNSt3__212basic_stringIcNS_11char_traitsIcEENS_9allocatorIcEEE19__move_assign_allocERS5_NS_17integral_constantIbLb1EEE", "__ZNSt3__212basic_stringIcNS_11char_traitsIcEENS_9allocatorIcEEE19__move_assign_allocERS5_NS_17integral_constantIbLb0EEE", "__ZNSt3__212basic_stringIwNS_11char_traitsIwEENS_9allocatorIwEEEC2Ev", "__ZNSt3__212basic_stringIwNS_11char_traitsIwEENS_9allocatorIwEEE6__zeroEv", "__ZNSt3__212basic_stringIwNS_11char_traitsIwEENS_9allocatorIwEEEC2ERKS4_", "__ZNSt3__212basic_stringIwNS_11char_traitsIwEENS_9allocatorIwEEEC2ERKS5_", "__ZNKSt3__212basic_stringIwNS_11char_traitsIwEENS_9allocatorIwEEE7__allocEv", "__ZNKSt3__212basic_stringIwNS_11char_traitsIwEENS_9allocatorIwEEE9__is_longEv", "__ZNSt3__212basic_stringIwNS_11char_traitsIwEENS_9allocatorIwEEE6__initEPKwj", "__ZNKSt3__212basic_stringIwNS_11char_traitsIwEENS_9allocatorIwEEE18__get_long_pointerEv", "__ZNKSt3__212basic_stringIwNS_11char_traitsIwEENS_9allocatorIwEEE15__get_long_sizeEv", "__ZNSt3__212basic_stringIwNS_11char_traitsIwEENS_9allocatorIwEEEC2ERKS5_RKS4_", "__ZNSt3__212basic_stringIwNS_11char_traitsIwEENS_9allocatorIwEEEC2EOS5_", "__ZNSt3__212basic_stringIwNS_11char_traitsIwEENS_9allocatorIwEEEC2EOS5_RKS4_", "__ZNSt3__212basic_stringIwNS_11char_traitsIwEENS_9allocatorIwEEE7__allocEv", "__ZNSt3__212basic_stringIwNS_11char_traitsIwEENS_9allocatorIwEEE18__get_long_pointerEv", "__ZNSt3__212basic_stringIwNS_11char_traitsIwEENS_9allocatorIwEEEC2EPKw", "__ZNSt3__211char_traitsIwE6lengthEPKw", "__ZNSt3__212basic_stringIwNS_11char_traitsIwEENS_9allocatorIwEEEC2EPKwRKS4_", "__ZNSt3__212basic_stringIwNS_11char_traitsIwEENS_9allocatorIwEEEC2EPKwj", "__ZNSt3__212basic_stringIwNS_11char_traitsIwEENS_9allocatorIwEEEC2EPKwjRKS4_", "__ZNSt3__212basic_stringIwNS_11char_traitsIwEENS_9allocatorIwEEEC2Ejw", "__ZNSt3__212basic_stringIwNS_11char_traitsIwEENS_9allocatorIwEEE6__initEjw", "__ZNSt3__212basic_stringIwNS_11char_traitsIwEENS_9allocatorIwEEEC2EjwRKS4_", "__ZNSt3__212basic_stringIwNS_11char_traitsIwEENS_9allocatorIwEEEC2ERKS5_jjRKS4_", "__ZNKSt3__212basic_stringIwNS_11char_traitsIwEENS_9allocatorIwEEE4sizeEv", "__ZNKSt3__212basic_stringIwNS_11char_traitsIwEENS_9allocatorIwEEE4dataEv", "__ZNSt3__212basic_stringIwNS_11char_traitsIwEENS_9allocatorIwEEEC2ERKS5_jRKS4_", "__ZNSt3__212basic_stringIwNS_11char_traitsIwEENS_9allocatorIwEEEC2ESt16initializer_listIwE", "__ZNSt3__212basic_stringIwNS_11char_traitsIwEENS_9allocatorIwEEE6__initIPKwEENS_9enable_ifIXsr21__is_forward_iteratorIT_EE5valueEvE4typeESA_SA_", "__ZNSt3__212basic_stringIwNS_11char_traitsIwEENS_9allocatorIwEEEC2ESt16initializer_listIwERKS4_", "__ZNSt3__212basic_stringIwNS_11char_traitsIwEENS_9allocatorIwEEED2Ev", "__ZNKSt3__212basic_stringIwNS_11char_traitsIwEENS_9allocatorIwEEE14__get_long_capEv", "__ZNSt3__212basic_stringIwNS_11char_traitsIwEENS_9allocatorIwEEEaSERKS5_", "__ZNSt3__212basic_stringIwNS_11char_traitsIwEENS_9allocatorIwEEE19__copy_assign_allocERKS5_", "__ZNSt3__212basic_stringIwNS_11char_traitsIwEENS_9allocatorIwEEE6assignEPKwj", "__ZNSt3__212basic_stringIwNS_11char_traitsIwEENS_9allocatorIwEEEaSEOS5_", "__ZNSt3__212basic_stringIwNS_11char_traitsIwEENS_9allocatorIwEEE13__move_assignERS5_NS_17integral_constantIbLb1EEE", "__ZNSt3__212basic_stringIwNS_11char_traitsIwEENS_9allocatorIwEEEaSEPKw", "__ZNSt3__212basic_stringIwNS_11char_traitsIwEENS_9allocatorIwEEE6assignEPKw", "__ZNSt3__212basic_stringIwNS_11char_traitsIwEENS_9allocatorIwEEEaSEw", "__ZNSt3__212basic_stringIwNS_11char_traitsIwEENS_9allocatorIwEEE15__set_long_sizeEj", "__ZNSt3__212basic_stringIwNS_11char_traitsIwEENS_9allocatorIwEEE19__get_short_pointerEv", "__ZNSt3__212basic_stringIwNS_11char_traitsIwEENS_9allocatorIwEEE16__set_short_sizeEj", "__ZNSt3__211char_traitsIwE6assignERwRKw", "__ZNSt3__212basic_stringIwNS_11char_traitsIwEENS_9allocatorIwEEE27__invalidate_iterators_pastEj", "__ZNSt3__212basic_stringIwNS_11char_traitsIwEENS_9allocatorIwEEEaSESt16initializer_listIwE", "__ZNSt3__212basic_stringIwNS_11char_traitsIwEENS_9allocatorIwEEE5beginEv", "__ZNSt3__212basic_stringIwNS_11char_traitsIwEENS_9allocatorIwEEE13__get_pointerEv", "__ZNKSt3__212basic_stringIwNS_11char_traitsIwEENS_9allocatorIwEEE5beginEv", "__ZNKSt3__212basic_stringIwNS_11char_traitsIwEENS_9allocatorIwEEE13__get_pointerEv", "__ZNSt3__212basic_stringIwNS_11char_traitsIwEENS_9allocatorIwEEE3endEv", "__ZNKSt3__212basic_stringIwNS_11char_traitsIwEENS_9allocatorIwEEE3endEv", "__ZNSt3__212basic_stringIwNS_11char_traitsIwEENS_9allocatorIwEEE6rbeginEv", "__ZNKSt3__212basic_stringIwNS_11char_traitsIwEENS_9allocatorIwEEE6rbeginEv", "__ZNSt3__212basic_stringIwNS_11char_traitsIwEENS_9allocatorIwEEE4rendEv", "__ZNKSt3__212basic_stringIwNS_11char_traitsIwEENS_9allocatorIwEEE4rendEv", "__ZNKSt3__212basic_stringIwNS_11char_traitsIwEENS_9allocatorIwEEE6cbeginEv", "__ZNKSt3__212basic_stringIwNS_11char_traitsIwEENS_9allocatorIwEEE4cendEv", "__ZNKSt3__212basic_stringIwNS_11char_traitsIwEENS_9allocatorIwEEE7crbeginEv", "__ZNKSt3__212basic_stringIwNS_11char_traitsIwEENS_9allocatorIwEEE5crendEv", "__ZNKSt3__212basic_stringIwNS_11char_traitsIwEENS_9allocatorIwEEE16__get_short_sizeEv", "__ZNKSt3__212basic_stringIwNS_11char_traitsIwEENS_9allocatorIwEEE6lengthEv", "__ZNKSt3__212basic_stringIwNS_11char_traitsIwEENS_9allocatorIwEEE8max_sizeEv", "__ZNKSt3__212basic_stringIwNS_11char_traitsIwEENS_9allocatorIwEEE8capacityEv", "__ZNSt3__212basic_stringIwNS_11char_traitsIwEENS_9allocatorIwEEE6resizeEjw", "__ZNSt3__212basic_stringIwNS_11char_traitsIwEENS_9allocatorIwEEE6appendEjw", "__ZNSt3__212basic_stringIwNS_11char_traitsIwEENS_9allocatorIwEEE14__erase_to_endEj", "__ZNSt3__212basic_stringIwNS_11char_traitsIwEENS_9allocatorIwEEE6resizeEj", "__ZNSt3__212basic_stringIwNS_11char_traitsIwEENS_9allocatorIwEEE7reserveEj", "__ZNSt3__212basic_stringIwNS_11char_traitsIwEENS_9allocatorIwEEE11__recommendEj", "__ZNSt3__211char_traitsIwE4copyEPwPKwj", "__ZNSt3__212basic_stringIwNS_11char_traitsIwEENS_9allocatorIwEEE14__set_long_capEj", "__ZNSt3__212basic_stringIwNS_11char_traitsIwEENS_9allocatorIwEEE18__set_long_pointerEPw", "__ZNSt3__212basic_stringIwNS_11char_traitsIwEENS_9allocatorIwEEE26__invalidate_all_iteratorsEv", "__ZNSt3__212basic_stringIwNS_11char_traitsIwEENS_9allocatorIwEEE13shrink_to_fitEv", "__ZNSt3__212basic_stringIwNS_11char_traitsIwEENS_9allocatorIwEEE5clearEv", "__ZNKSt3__212basic_stringIwNS_11char_traitsIwEENS_9allocatorIwEEE5emptyEv", "__ZNKSt3__212basic_stringIwNS_11char_traitsIwEENS_9allocatorIwEEEixEj", "__ZNSt3__212basic_stringIwNS_11char_traitsIwEENS_9allocatorIwEEEixEj", "__ZNKSt3__212basic_stringIwNS_11char_traitsIwEENS_9allocatorIwEEE2atEj", "__ZNSt3__212basic_stringIwNS_11char_traitsIwEENS_9allocatorIwEEE2atEj", "__ZNSt3__212basic_stringIwNS_11char_traitsIwEENS_9allocatorIwEEEpLERKS5_", "__ZNSt3__212basic_stringIwNS_11char_traitsIwEENS_9allocatorIwEEE6appendERKS5_", "__ZNSt3__212basic_stringIwNS_11char_traitsIwEENS_9allocatorIwEEEpLEPKw", "__ZNSt3__212basic_stringIwNS_11char_traitsIwEENS_9allocatorIwEEE6appendEPKw", "__ZNSt3__212basic_stringIwNS_11char_traitsIwEENS_9allocatorIwEEEpLEw", "__ZNSt3__212basic_stringIwNS_11char_traitsIwEENS_9allocatorIwEEE9push_backEw", "__ZNSt3__212basic_stringIwNS_11char_traitsIwEENS_9allocatorIwEEEpLESt16initializer_listIwE", "__ZNSt3__212basic_stringIwNS_11char_traitsIwEENS_9allocatorIwEEE6appendESt16initializer_listIwE", "__ZNSt3__212basic_stringIwNS_11char_traitsIwEENS_9allocatorIwEEE6appendEPKwj", "__ZNSt3__212basic_stringIwNS_11char_traitsIwEENS_9allocatorIwEEE6appendERKS5_jj", "__ZNSt3__212basic_stringIwNS_11char_traitsIwEENS_9allocatorIwEEE10__set_sizeEj", "__ZNSt3__212basic_stringIwNS_11char_traitsIwEENS_9allocatorIwEEE21__grow_by_and_replaceEjjjjjjPKw", "__ZNSt3__212basic_stringIwNS_11char_traitsIwEENS_9allocatorIwEEE9__grow_byEjjjjjj", "__ZNSt3__211char_traitsIwE6assignEPwjw", "__ZNSt3__212basic_stringIwNS_11char_traitsIwEENS_9allocatorIwEEE8pop_backEv", "__ZNSt3__212basic_stringIwNS_11char_traitsIwEENS_9allocatorIwEEE5frontEv", "__ZNKSt3__212basic_stringIwNS_11char_traitsIwEENS_9allocatorIwEEE5frontEv", "__ZNSt3__212basic_stringIwNS_11char_traitsIwEENS_9allocatorIwEEE4backEv", "__ZNKSt3__212basic_stringIwNS_11char_traitsIwEENS_9allocatorIwEEE4backEv", "__ZNSt3__212basic_stringIwNS_11char_traitsIwEENS_9allocatorIwEEE6assignERKS5_", "__ZNSt3__212basic_stringIwNS_11char_traitsIwEENS_9allocatorIwEEE6assignEOS5_", "__ZNSt3__212basic_stringIwNS_11char_traitsIwEENS_9allocatorIwEEE6assignERKS5_jj", "__ZNSt3__211char_traitsIwE4moveEPwPKwj", "__ZNSt3__212basic_stringIwNS_11char_traitsIwEENS_9allocatorIwEEE6assignEjw", "__ZNSt3__212basic_stringIwNS_11char_traitsIwEENS_9allocatorIwEEE6assignESt16initializer_listIwE", "__ZNSt3__212basic_stringIwNS_11char_traitsIwEENS_9allocatorIwEEE6insertEjRKS5_", "__ZNSt3__212basic_stringIwNS_11char_traitsIwEENS_9allocatorIwEEE6insertEjPKwj", "__ZNSt3__212basic_stringIwNS_11char_traitsIwEENS_9allocatorIwEEE6insertEjRKS5_jj", "__ZNSt3__212basic_stringIwNS_11char_traitsIwEENS_9allocatorIwEEE6insertEjPKw", "__ZNSt3__212basic_stringIwNS_11char_traitsIwEENS_9allocatorIwEEE6insertEjjw", "__ZNSt3__212basic_stringIwNS_11char_traitsIwEENS_9allocatorIwEEE6insertENS_11__wrap_iterIPKwEEw", "__ZNSt3__212basic_stringIwNS_11char_traitsIwEENS_9allocatorIwEEE6insertENS_11__wrap_iterIPKwEEjw", "__ZNSt3__212basic_stringIwNS_11char_traitsIwEENS_9allocatorIwEEE6insertENS_11__wrap_iterIPKwEESt16initializer_listIwE", "__ZNSt3__212basic_stringIwNS_11char_traitsIwEENS_9allocatorIwEEE6insertIPKwEENS_9enable_ifIXaasr21__is_forward_iteratorIT_EE5valuesr38__libcpp_string_gets_noexcept_iteratorISA_EE5valueENS_11__wrap_iterIPwEEE4typeENSB_IS8_EESA_SA_", "__ZNSt3__212basic_stringIwNS_11char_traitsIwEENS_9allocatorIwEEE5eraseEjj", "__ZNSt3__212basic_stringIwNS_11char_traitsIwEENS_9allocatorIwEEE5eraseENS_11__wrap_iterIPKwEE", "__ZNSt3__212basic_stringIwNS_11char_traitsIwEENS_9allocatorIwEEE5eraseENS_11__wrap_iterIPKwEES9_", "__ZNSt3__212basic_stringIwNS_11char_traitsIwEENS_9allocatorIwEEE7replaceEjjRKS5_", "__ZNSt3__212basic_stringIwNS_11char_traitsIwEENS_9allocatorIwEEE7replaceEjjPKwj", "__ZNSt3__212basic_stringIwNS_11char_traitsIwEENS_9allocatorIwEEE7replaceEjjRKS5_jj", "__ZNSt3__212basic_stringIwNS_11char_traitsIwEENS_9allocatorIwEEE7replaceEjjPKw", "__ZNSt3__212basic_stringIwNS_11char_traitsIwEENS_9allocatorIwEEE7replaceEjjjw", "__ZNSt3__212basic_stringIwNS_11char_traitsIwEENS_9allocatorIwEEE7replaceENS_11__wrap_iterIPKwEES9_RKS5_", "__ZNSt3__212basic_stringIwNS_11char_traitsIwEENS_9allocatorIwEEE7replaceENS_11__wrap_iterIPKwEES9_S8_j", "__ZNSt3__212basic_stringIwNS_11char_traitsIwEENS_9allocatorIwEEE7replaceENS_11__wrap_iterIPKwEES9_S8_", "__ZNSt3__212basic_stringIwNS_11char_traitsIwEENS_9allocatorIwEEE7replaceENS_11__wrap_iterIPKwEES9_jw", "__ZNSt3__212basic_stringIwNS_11char_traitsIwEENS_9allocatorIwEEE7replaceENS_11__wrap_iterIPKwEES9_St16initializer_listIwE", "__ZNSt3__212basic_stringIwNS_11char_traitsIwEENS_9allocatorIwEEE7replaceIPKwEENS_9enable_ifIXsr19__is_input_iteratorIT_EE5valueERS5_E4typeENS_11__wrap_iterIS8_EESF_SA_SA_", "__ZNKSt3__212basic_stringIwNS_11char_traitsIwEENS_9allocatorIwEEE4copyEPwjj", "__ZNKSt3__212basic_stringIwNS_11char_traitsIwEENS_9allocatorIwE", "__ZNSt3__212basic_stringIwNS_11char_traitsIwEENS_9allocatorIwEEE4swapERS5_", "__ZNKSt3__212basic_stringIwNS_11char_traitsIwEENS_9allocatorIwEEE5c_strEv", "__ZNKSt3__212basic_stringIwNS_11char_traitsIwEENS_9allocatorIwEEE13get_allocatorEv", "__ZNKSt3__212basic_stringIwNS_11char_traitsIwEENS_9allocatorIwEEE4findERKS5_j", "__ZNKSt3__212basic_stringIwNS_11char_traitsIwEENS_9allocatorIwEEE4findEPKwjj", "__ZNKSt3__212basic_stringIwNS_11char_traitsIwEENS_9allocatorIwEEE4findEPKwj", "__ZNKSt3__212basic_stringIwNS_11char_traitsIwEENS_9allocatorIwEEE4findEwj", "__ZNKSt3__212basic_stringIwNS_11char_traitsIwEENS_9allocatorIwEEE5rfindERKS5_j", "__ZNKSt3__212basic_stringIwNS_11char_traitsIwEENS_9allocatorIwEEE5rfindEPKwjj", "__ZNKSt3__212basic_stringIwNS_11char_traitsIwEENS_9allocatorIwEEE5rfindEPKwj", "__ZNKSt3__212basic_stringIwNS_11char_traitsIwEENS_9allocatorIwEEE5rfindEwj", "__ZNKSt3__212basic_stringIwNS_11char_traitsIwEENS_9allocatorIwEEE13find_first_ofERKS5_j", "__ZNKSt3__212basic_stringIwNS_11char_traitsIwEENS_9allocatorIwEEE13find_first_ofEPKwjj", "__ZNKSt3__212basic_stringIwNS_11char_traitsIwEENS_9allocatorIwEEE13find_first_ofEPKwj", "__ZNKSt3__212basic_stringIwNS_11char_traitsIwEENS_9allocatorIwEEE13find_first_ofEwj", "__ZNKSt3__212basic_stringIwNS_11char_traitsIwEENS_9allocatorIwEEE12find_last_ofERKS5_j", "__ZNKSt3__212basic_stringIwNS_11char_traitsIwEENS_9allocatorIwEEE12find_last_ofEPKwjj", "__ZNKSt3__212basic_stringIwNS_11char_traitsIwEENS_9allocatorIwEEE12find_last_ofEPKwj", "__ZNKSt3__212basic_stringIwNS_11char_traitsIwEENS_9allocatorIwEEE12find_last_ofEwj", "__ZNKSt3__212basic_stringIwNS_11char_traitsIwEENS_9allocatorIwEEE17find_first_not_ofERKS5_j", "__ZNKSt3__212basic_stringIwNS_11char_traitsIwEENS_9allocatorIwEEE17find_first_not_ofEPKwjj", "__ZNKSt3__212basic_stringIwNS_11char_traitsIwEENS_9allocatorIwEEE17find_first_not_ofEPKwj", "__ZNKSt3__212basic_stringIwNS_11char_traitsIwEENS_9allocatorIwEEE17find_first_not_ofEwj", "__ZNKSt3__212basic_stringIwNS_11char_traitsIwEENS_9allocatorIwEEE16find_last_not_ofERKS5_j", "__ZNKSt3__212basic_stringIwNS_11char_traitsIwEENS_9allocatorIwEEE16find_last_not_ofEPKwjj", "__ZNKSt3__212basic_stringIwNS_11char_traitsIwEENS_9allocatorIwEEE16find_last_not_ofEPKwj", "__ZNKSt3__212basic_stringIwNS_11char_traitsIwEENS_9allocatorIwEEE16find_last_not_ofEwj", "__ZNKSt3__212basic_stringIwNS_11char_traitsIwEENS_9allocatorIwEEE7compareERKS5_", "__ZNSt3__211char_traitsIwE7compareEPKwS3_j", "__ZNKSt3__212basic_stringIwNS_11char_traitsIwEENS_9allocatorIwEEE7compareEjjRKS5_", "__ZNKSt3__212basic_stringIwNS_11char_traitsIwEENS_9allocatorIwEEE7compareEjjPKwj", "__ZNKSt3__212basic_stringIwNS_11char_traitsIwEENS_9allocatorIwEEE7compareEjjRKS5_jj", "__ZNKSt3__212basic_stringIwNS_11char_traitsIwEENS_9allocatorIwEEE7compareEPKw", "__ZNKSt3__212basic_stringIwNS_11char_traitsIwEENS_9allocatorIwEEE7compareEjjPKw", "__ZNKSt3__212basic_stringIwNS_11char_traitsIwEENS_9allocatorIwEEE12__invariantsEv", "__ZNKSt3__212basic_stringIwNS_11char_traitsIwEENS_9allocatorIwEEE19__get_short_pointerEv", "__ZNSt3__212basic_stringIwNS_11char_traitsIwEENS_9allocatorIwEEE6__initEPKwjj", "__ZNSt3__212basic_stringIwNS_11char_traitsIwEENS_9allocatorIwEEE19__copy_assign_allocERKS5_NS_17integral_constantIbLb0EEE", "__ZNSt3__212basic_stringIwNS_11char_traitsIwEENS_9allocatorIwEEE19__copy_assign_allocERKS5_NS_17integral_constantIbLb1EEE", "__ZNSt3__212basic_stringIwNS_11char_traitsIwEENS_9allocatorIwEEE13__move_assignERS5_NS_17integral_constantIbLb0EEE", "__ZNSt3__212basic_stringIwNS_11char_traitsIwEENS_9allocatorIwEEE19__move_assign_allocERS5_", "__ZNSt3__212basic_stringIwNS_11char_traitsIwEENS_9allocatorIwEEE19__move_assign_allocERS5_NS_17integral_constantIbLb1EEE", "__ZNSt3__212basic_stringIwNS_11char_traitsIwEENS_9allocatorIwEEE19__move_assign_allocERS5_NS_17integral_constantIbLb0EEE", "__ZNSt3__2plIcNS_11char_traitsIcEENS_9allocatorIcEEEENS_12basic_stringIT_T0_T1_EEPKS6_RKS9_", "__ZNSt3__24stoiERKNS_12basic_stringIcNS_11char_traitsIcEENS_9allocatorIcEEEEPji", "__ZNSt3__212_GLOBAL__N_110as_integerIiNS_12basic_stringIcNS_11char_traitsIcEENS_9allocatorIcEEEEEET_RKS7_RKT0_Pji", "__ZNSt3__24stoiERKNS_12basic_stringIwNS_11char_traitsIwEENS_9allocatorIwEEEEPji", "__ZNSt3__212_GLOBAL__N_110as_integerIiNS_12basic_stringIwNS_11char_traitsIwEENS_9allocatorIwEEEEEET_RKNS2_IcNS3_IcEENS5_IcEEEERKT0_Pji", "__ZNSt3__24stolERKNS_12basic_stringIcNS_11char_traitsIcEENS_9allocatorIcEEEEPji", "__ZNSt3__212_GLOBAL__N_110as_integerIlNS_12basic_stringIcNS_11char_traitsIcEENS_9allocatorIcEEEEEET_RKS7_RKT0_Pji", "__ZNSt3__24stolERKNS_12basic_stringIwNS_11char_traitsIwEENS_9allocatorIwEEEEPji", "__ZNSt3__212_GLOBAL__N_110as_integerIlNS_12basic_stringIwNS_11char_traitsIwEENS_9allocatorIwEEEEEET_RKNS2_IcNS3_IcEENS5_IcEEEERKT0_Pji", "__ZNSt3__25stoulERKNS_12basic_stringIcNS_11char_traitsIcEENS_9allocatorIcEEEEPji", "__ZNSt3__212_GLOBAL__N_110as_integerImNS_12basic_stringIcNS_11char_traitsIcEENS_9allocatorIcEEEEEET_RKS7_RKT0_Pji", "__ZNSt3__25stoulERKNS_12basic_stringIwNS_11char_traitsIwEENS_9allocatorIwEEEEPji", "__ZNSt3__212_GLOBAL__N_110as_integerImNS_12basic_stringIwNS_11char_traitsIwEENS_9allocatorIwEEEEEET_RKNS2_IcNS3_IcEENS5_IcEEEERKT0_Pji", "__ZNSt3__25stollERKNS_12basic_stringIcNS_11char_traitsIcEENS_9allocatorIcEEEEPji", "__ZNSt3__212_GLOBAL__N_110as_integerIxNS_12basic_stringIcNS_11char_traitsIcEENS_9allocatorIcEEEEEET_RKS7_RKT0_Pji", "__ZNSt3__25stollERKNS_12basic_stringIwNS_11char_traitsIwEENS_9allocatorIwEEEEPji", "__ZNSt3__212_GLOBAL__N_110as_integerIxNS_12basic_stringIwNS_11char_traitsIwEENS_9allocatorIwEEEEEET_RKNS2_IcNS3_IcEENS5_IcEEEERKT0_Pji", "__ZNSt3__26stoullERKNS_12basic_stringIcNS_11char_traitsIcEENS_9allocatorIcEEEEPji", "__ZNSt3__212_GLOBAL__N_110as_integerIyNS_12basic_stringIcNS_11char_traitsIcEENS_9allocatorIcEEEEEET_RKS7_RKT0_Pji", "__ZNSt3__26stoullERKNS_12basic_stringIwNS_11char_traitsIwEENS_9allocatorIwEEEEPji", "__ZNSt3__212_GLOBAL__N_110as_integerIyNS_12basic_stringIwNS_11char_traitsIwEENS_9allocatorIwEEEEEET_RKNS2_IcNS3_IcEENS5_IcEEEERKT0_Pji", "__ZNSt3__24stofERKNS_12basic_stringIcNS_11char_traitsIcEENS_9allocatorIcEEEEPj", "__ZNSt3__212_GLOBAL__N_18as_floatIfNS_12basic_stringIcNS_11char_traitsIcEENS_9allocatorIcEEEEEET_RKS7_RKT0_Pj", "__ZNSt3__24stofERKNS_12basic_stringIwNS_11char_traitsIwEENS_9allocatorIwEEEEPj", "__ZNSt3__212_GLOBAL__N_18as_floatIfNS_12basic_stringIwNS_11char_traitsIwEENS_9allocatorIwEEEEEET_RKNS2_IcNS3_IcEENS5_IcEEEERKT0_Pj", "__ZNSt3__24stodERKNS_12basic_stringIcNS_11char_traitsIcEENS_9allocatorIcEEEEPj", "__ZNSt3__212_GLOBAL__N_18as_floatIdNS_12basic_stringIcNS_11char_traitsIcEENS_9allocatorIcEEEEEET_RKS7_RKT0_Pj", "__ZNSt3__24stodERKNS_12basic_stringIwNS_11char_traitsIwEENS_9allocatorIwEEEEPj", "__ZNSt3__212_GLOBAL__N_18as_floatIdNS_12basic_stringIwNS_11char_traitsIwEENS_9allocatorIwEEEEEET_RKNS2_IcNS3_IcEENS5_IcEEEERKT0_Pj", "__ZNSt3__25stoldERKNS_12basic_stringIcNS_11char_traitsIcEENS_9allocatorIcEEEEPj", "__ZNSt3__212_GLOBAL__N_18as_floatIeNS_12basic_stringIcNS_11char_traitsIcEENS_9allocatorIcEEEEEET_RKS7_RKT0_Pj", "__ZNSt3__25stoldERKNS_12basic_stringIwNS_11char_traitsIwEENS_9allocatorIwEEEEPj", "__ZNSt3__212_GLOBAL__N_18as_floatIeNS_12basic_stringIwNS_11char_traitsIwEENS_9allocatorIwEEEEEET_RKNS2_IcNS3_IcEENS5_IcEEEERKT0_Pj", "__ZNSt3__29to_stringEi", "__ZNSt3__212_GLOBAL__N_19as_stringINS_12basic_stringIcNS_11char_traitsIcEENS_9allocatorIcEEEEPFiPcjPKczEiEET_T0_SD_PKNSD_10value_typeET1_", "__ZNKSt3__212_GLOBAL__N_114initial_stringINS_12basic_stringIcNS_11char_traitsIcEENS_9allocatorIcEEEEiLb0EEclEv", "__ZNSt3__29to_stringEj", "__ZNSt3__212_GLOBAL__N_19as_stringINS_12basic_stringIcNS_11char_traitsIcEENS_9allocatorIcEEEEPFiPcjPKczEjEET_T0_SD_PKNSD_10value_typeET1_", "__ZNKSt3__212_GLOBAL__N_114initial_stringINS_12basic_stringIcNS_11char_traitsIcEENS_9allocatorIcEEEEjLb0EEclEv", "__ZNSt3__29to_stringEl", "__ZNSt3__212_GLOBAL__N_19as_stringINS_12basic_stringIcNS_11char_traitsIcEENS_9allocatorIcEEEEPFiPcjPKczElEET_T0_SD_PKNSD_10value_typeET1_", "__ZNKSt3__212_GLOBAL__N_114initial_stringINS_12basic_stringIcNS_11char_traitsIcEENS_9allocatorIcEEEElLb0EEclEv", "__ZNSt3__29to_stringEm", "__ZNSt3__212_GLOBAL__N_19as_stringINS_12basic_stringIcNS_11char_traitsIcEENS_9allocatorIcEEEEPFiPcjPKczEmEET_T0_SD_PKNSD_10value_typeET1_", "__ZNKSt3__212_GLOBAL__N_114initial_stringINS_12basic_stringIcNS_11char_traitsIcEENS_9allocatorIcEEEEmLb0EEclEv", "__ZNSt3__29to_stringEx", "__ZNSt3__212_GLOBAL__N_19as_stringINS_12basic_stringIcNS_11char_traitsIcEENS_9allocatorIcEEEEPFiPcjPKczExEET_T0_SD_PKNSD_10value_typeET1_", "__ZNKSt3__212_GLOBAL__N_114initial_stringINS_12basic_stringIcNS_11char_traitsIcEENS_9allocatorIcEEEExLb0EEclEv", "__ZNSt3__29to_stringEy", "__ZNSt3__212_GLOBAL__N_19as_stringINS_12basic_stringIcNS_11char_traitsIcEENS_9allocatorIcEEEEPFiPcjPKczEyEET_T0_SD_PKNSD_10value_typeET1_", "__ZNKSt3__212_GLOBAL__N_114initial_stringINS_12basic_stringIcNS_11char_traitsIcEENS_9allocatorIcEEEEyLb0EEclEv", "__ZNSt3__29to_stringEf", "__ZNSt3__212_GLOBAL__N_19as_stringINS_12basic_stringIcNS_11char_traitsIcEENS_9allocatorIcEEEEPFiPcjPKczEfEET_T0_SD_PKNSD_10value_typeET1_", "__ZNKSt3__212_GLOBAL__N_114initial_stringINS_12basic_stringIcNS_11char_traitsIcEENS_9allocatorIcEEEEfLb1EEclEv", "__ZNSt3__29to_stringEd", "__ZNSt3__212_GLOBAL__N_19as_stringINS_12basic_stringIcNS_11char_traitsIcEENS_9allocatorIcEEEEPFiPcjPKczEdEET_T0_SD_PKNSD_10value_typeET1_", "__ZNKSt3__212_GLOBAL__N_114initial_stringINS_12basic_stringIcNS_11char_traitsIcEENS_9allocatorIcEEEEdLb1EEclEv", "__ZNSt3__29to_stringEe", "__ZNSt3__212_GLOBAL__N_19as_stringINS_12basic_stringIcNS_11char_traitsIcEENS_9allocatorIcEEEEPFiPcjPKczEeEET_T0_SD_PKNSD_10value_typeET1_", "__ZNKSt3__212_GLOBAL__N_114initial_stringINS_12basic_stringIcNS_11char_traitsIcEENS_9allocatorIcEEEEeLb1EEclEv", "__ZNSt3__210to_wstringEi", "__ZNSt3__212_GLOBAL__N_19as_stringINS_12basic_stringIwNS_11char_traitsIwEENS_9allocatorIwEEEEPFiPwjPKwzEiEET_T0_SD_PKNSD_10value_typeET1_", "__ZNKSt3__212_GLOBAL__N_114initial_stringINS_12basic_stringIwNS_11char_traitsIwEENS_9allocatorIwEEEEiLb0EEclEv", "__ZNSt3__210to_wstringEj", "__ZNSt3__212_GLOBAL__N_19as_stringINS_12basic_stringIwNS_11char_traitsIwEENS_9allocatorIwEEEEPFiPwjPKwzEjEET_T0_SD_PKNSD_10value_typeET1_", "__ZNKSt3__212_GLOBAL__N_114initial_stringINS_12basic_stringIwNS_11char_traitsIwEENS_9allocatorIwEEEEjLb0EEclEv", "__ZNSt3__210to_wstringEl", "__ZNSt3__212_GLOBAL__N_19as_stringINS_12basic_stringIwNS_11char_traitsIwEENS_9allocatorIwEEEEPFiPwjPKwzElEET_T0_SD_PKNSD_10value_typeET1_", "__ZNKSt3__212_GLOBAL__N_114initial_stringINS_12basic_stringIwNS_11char_traitsIwEENS_9allocatorIwEEEElLb0EEclEv", "__ZNSt3__210to_wstringEm", "__ZNSt3__212_GLOBAL__N_19as_stringINS_12basic_stringIwNS_11char_traitsIwEENS_9allocatorIwEEEEPFiPwjPKwzEmEET_T0_SD_PKNSD_10value_typeET1_", "__ZNKSt3__212_GLOBAL__N_114initial_stringINS_12basic_stringIwNS_11char_traitsIwEENS_9allocatorIwEEEEmLb0EEclEv", "__ZNSt3__210to_wstringEx", "__ZNSt3__212_GLOBAL__N_19as_stringINS_12basic_stringIwNS_11char_traitsIwEENS_9allocatorIwEEEEPFiPwjPKwzExEET_T0_SD_PKNSD_10value_typeET1_", "__ZNKSt3__212_GLOBAL__N_114initial_stringINS_12basic_stringIwNS_11char_traitsIwEENS_9allocatorIwEEEExLb0EEclEv", "__ZNSt3__210to_wstringEy", "__ZNSt3__212_GLOBAL__N_19as_stringINS_12basic_stringIwNS_11char_traitsIwEENS_9allocatorIwEEEEPFiPwjPKwzEyEET_T0_SD_PKNSD_10value_typeET1_", "__ZNKSt3__212_GLOBAL__N_114initial_stringINS_12basic_stringIwNS_11char_traitsIwEENS_9allocatorIwEEEEyLb0EEclEv", "__ZNSt3__210to_wstringEf", "__ZNSt3__212_GLOBAL__N_19as_stringINS_12basic_stringIwNS_11char_traitsIwEENS_9allocatorIwEEEEPFiPwjPKwzEfEET_T0_SD_PKNSD_10value_typeET1_", "__ZNKSt3__212_GLOBAL__N_114initial_stringINS_12basic_stringIwNS_11char_traitsIwEENS_9allocatorIwEEEEfLb1EEclEv", "__ZNSt3__210to_wstringEd", "__ZNSt3__212_GLOBAL__N_19as_stringINS_12basic_stringIwNS_11char_traitsIwEENS_9allocatorIwEEEEPFiPwjPKwzEdEET_T0_SD_PKNSD_10value_typeET1_", "__ZNKSt3__212_GLOBAL__N_114initial_stringINS_12basic_stringIwNS_11char_traitsIwEENS_9allocatorIwEEEEdLb1EEclEv", "__ZNSt3__210to_wstringEe", "__ZNSt3__212_GLOBAL__N_19as_stringINS_12basic_stringIwNS_11char_traitsIwEENS_9allocatorIwEEEEPFiPwjPKwzEeEET_T0_SD_PKNSD_10value_typeET1_", "__ZNKSt3__212_GLOBAL__N_114initial_stringINS_12basic_stringIwNS_11char_traitsIwEENS_9allocatorIwEEEEeLb1EEclEv", "__ZNSt3__211char_traitsIcE11to_int_typeEc", "__ZNSt3__212_GLOBAL__N_117as_integer_helperIlNS_12basic_stringIcNS_11char_traitsIcEENS_9allocatorIcEEEEPFlPKcPPciEEET_RKS7_RKT0_PjiT1_", "__ZNSt3__212_GLOBAL__N_130throw_from_string_out_of_rangeERKNS_12basic_stringIcNS_11char_traitsIcEENS_9allocatorIcEEEE", "__ZNSt3__212_GLOBAL__N_129throw_from_string_invalid_argERKNS_12basic_stringIcNS_11char_traitsIcEENS_9allocatorIcEEEE", "__ZNSt3__212_GLOBAL__N_112throw_helperISt16invalid_argumentEEvRKNS_12basic_stringIcNS_11char_traitsIcEENS_9allocatorIcEEEE", "__ZNSt3__2plIcNS_11char_traitsIcEENS_9allocatorIcEEEENS_12basic_stringIT_T0_T1_EERKS9_PKS6_", "__ZNSt3__212_GLOBAL__N_112throw_helperISt12out_of_rangeEEvRKNS_12basic_stringIcNS_11char_traitsIcEENS_9allocatorIcEEEE", "__ZNSt3__212_GLOBAL__N_117as_integer_helperIlNS_12basic_stringIwNS_11char_traitsIwEENS_9allocatorIwEEEEPFlPKwPPwiEEET_RKNS2_IcNS3_IcEENS5_IcEEEERKT0_PjiT1_", "__ZNSt3__212_GLOBAL__N_117as_integer_helperImNS_12basic_stringIcNS_11char_traitsIcEENS_9allocatorIcEEEEPFmPKcPPciEEET_RKS7_RKT0_PjiT1_", "__ZNSt3__212_GLOBAL__N_117as_integer_helperImNS_12basic_stringIwNS_11char_traitsIwEENS_9allocatorIwEEEEPFmPKwPPwiEEET_RKNS2_IcNS3_IcEENS5_IcEEEERKT0_PjiT1_", "__ZNSt3__212_GLOBAL__N_117as_integer_helperIxNS_12basic_stringIcNS_11char_traitsIcEENS_9allocatorIcEEEEPFxPKcPPciEEET_RKS7_RKT0_PjiT1_", "__ZNSt3__212_GLOBAL__N_117as_integer_helperIxNS_12basic_stringIwNS_11char_traitsIwEENS_9allocatorIwEEEEPFxPKwPPwiEEET_RKNS2_IcNS3_IcEENS5_IcEEEERKT0_PjiT1_", "__ZNSt3__212_GLOBAL__N_117as_integer_helperIyNS_12basic_stringIcNS_11char_traitsIcEENS_9allocatorIcEEEEPFyPKcPPciEEET_RKS7_RKT0_PjiT1_", "__ZNSt3__212_GLOBAL__N_117as_integer_helperIyNS_12basic_stringIwNS_11char_traitsIwEENS_9allocatorIwEEEEPFyPKwPPwiEEET_RKNS2_IcNS3_IcEENS5_IcEEEERKT0_PjiT1_", "__ZNSt3__212_GLOBAL__N_115as_float_helperIfNS_12basic_stringIcNS_11char_traitsIcEENS_9allocatorIcEEEEPFfPKcPPcEEET_RKS7_RKT0_PjT1_", "__ZNSt3__212_GLOBAL__N_115as_float_helperIfNS_12basic_stringIwNS_11char_traitsIwEENS_9allocatorIwEEEEPFfPKwPPwEEET_RKNS2_IcNS3_IcEENS5_IcEEEERKT0_PjT1_", "__ZNSt3__212_GLOBAL__N_115as_float_helperIdNS_12basic_stringIcNS_11char_traitsIcEENS_9allocatorIcEEEEPFdPKcPPcEEET_RKS7_RKT0_PjT1_", "__ZNSt3__212_GLOBAL__N_115as_float_helperIdNS_12basic_stringIwNS_11char_traitsIwEENS_9allocatorIwEEEEPFdPKwPPwEEET_RKNS2_IcNS3_IcEENS5_IcEEEERKT0_PjT1_", "__ZNSt3__212_GLOBAL__N_115as_float_helperIeNS_12basic_stringIcNS_11char_traitsIcEENS_9allocatorIcEEEEPFePKcPPcEEET_RKS7_RKT0_PjT1_", "__ZNSt3__212_GLOBAL__N_115as_float_helperIeNS_12basic_stringIwNS_11char_traitsIwEENS_9allocatorIwEEEEPFePKwPPwEEET_RKNS2_IcNS3_IcEENS5_IcEEEERKT0_PjT1_", "__ZNSt3__28__searchIPFbccEPKcS4_EENS_4pairIT0_S6_EES6_S6_T1_S8_T_NS_26random_access_iterator_tagESA_", "__ZNSt3__211char_traitsIcE2eqEcc", "__ZNSt3__211char_traitsIcE4findEPKcjRS2_", "__ZNSt3__210__find_endIPFbccEPKcS4_EET0_S5_S5_T1_S6_T_NS_26random_access_iterator_tagES8_", "__ZNSt3__218__find_first_of_ceIPKcS2_PFbccEEET_S5_S5_T0_S6_T1_", "__ZNSt3__28__searchIPFbwwEPKwS4_EENS_4pairIT0_S6_EES6_S6_T1_S8_T_NS_26random_access_iterator_tagESA_", "__ZNSt3__211char_traitsIwE2eqEww", "__ZNSt3__211char_traitsIwE4findEPKwjRS2_", "__ZNSt3__210__find_endIPFbwwEPK", "__ZNSt3__218__find_first_of_ceIPKwS2_PFbwwEEET_S5_S5_T0_S6_T1_", "__WA_ZNSt3__212basic_stringIcNS_11char_traitsIcEENS_9allocatorIcEEEC1Ev", "__WA_ZNSt3__212basic_stringIcNS_11char_traitsIcEENS_9allocatorIcEEEC1ERKS4_", "__WA_ZNSt3__212basic_stringIcNS_11char_traitsIcEENS_9allocatorIcEEEC1ERKS5_", "__WA_ZNSt3__212basic_stringIcNS_11char_traitsIcEENS_9allocatorIcEEEC1ERKS5_RKS4_", "__WA_ZNSt3__212basic_stringIcNS_11char_traitsIcEENS_9allocatorIcEEEC1EOS5_", "__WA_ZNSt3__212basic_stringIcNS_11char_traitsIcEENS_9allocatorIcEEEC1EOS5_RKS4_", "__WA_ZNSt3__212basic_stringIcNS_11char_traitsIcEENS_9allocatorIcEEEC1EPKc", "__WA_ZNSt3__212basic_stringIcNS_11char_traitsIcEENS_9allocatorIcEEEC1EPKcRKS4_", "__WA_ZNSt3__212basic_stringIcNS_11char_traitsIcEENS_9allocatorIcEEEC1EPKcj", "__WA_ZNSt3__212basic_stringIcNS_11char_traitsIcEENS_9allocatorIcEEEC1EPKcjRKS4_", "__WA_ZNSt3__212basic_stringIcNS_11char_traitsIcEENS_9allocatorIcEEEC1Ejc", "__WA_ZNSt3__212basic_stringIcNS_11char_traitsIcEENS_9allocatorIcEEEC1EjcRKS4_", "__WA_ZNSt3__212basic_stringIcNS_11char_traitsIcEENS_9allocatorIcEEEC1ERKS5_jjRKS4_", "__WA_ZNSt3__212basic_stringIcNS_11char_traitsIcEENS_9allocatorIcEEEC1ERKS5_jRKS4_", "__WA_ZNSt3__212basic_stringIcNS_11char_traitsIcEENS_9allocatorIcEEEC1ESt16initializer_listIcE", "__WA_ZNSt3__212basic_stringIcNS_11char_traitsIcEENS_9allocatorIcEEEC1ESt16initializer_listIcERKS4_", "__WA_ZNSt3__212basic_stringIcNS_11char_traitsIcEENS_9allocatorIcEEED1Ev", "__WA_ZNSt3__212basic_stringIwNS_11char_traitsIwEENS_9allocatorIwEEEC1Ev", "__WA_ZNSt3__212basic_stringIwNS_11char_traitsIwEENS_9allocatorIwEEEC1ERKS4_", "__WA_ZNSt3__212basic_stringIwNS_11char_traitsIwEENS_9allocatorIwEEEC1ERKS5_", "__WA_ZNSt3__212basic_stringIwNS_11char_traitsIwEENS_9allocatorIwEEEC1ERKS5_RKS4_", "__WA_ZNSt3__212basic_stringIwNS_11char_traitsIwEENS_9allocatorIwEEEC1EOS5_", "__WA_ZNSt3__212basic_stringIwNS_11char_traitsIwEENS_9allocatorIwEEEC1EOS5_RKS4_", "__WA_ZNSt3__212basic_stringIwNS_11char_traitsIwEENS_9allocatorIwEEEC1EPKw", "__WA_ZNSt3__212basic_stringIwNS_11char_traitsIwEENS_9allocatorIwEEEC1EPKwRKS4_", "__WA_ZNSt3__212basic_stringIwNS_11char_traitsIwEENS_9allocatorIwEEEC1EPKwj", "__WA_ZNSt3__212basic_stringIwNS_11char_traitsIwEENS_9allocatorIwEEEC1EPKwjRKS4_", "__WA_ZNSt3__212basic_stringIwNS_11char_traitsIwEENS_9allocatorIwEEEC1Ejw", "__WA_ZNSt3__212basic_stringIwNS_11char_traitsIwEENS_9allocatorIwEEEC1EjwRKS4_", "__WA_ZNSt3__212basic_stringIwNS_11char_traitsIwEENS_9allocatorIwEEEC1ERKS5_jjRKS4_", "__WA_ZNSt3__212basic_stringIwNS_11char_traitsIwEENS_9allocatorIwEEEC1ERKS5_jRKS4_", "__WA_ZNSt3__212basic_stringIwNS_11char_traitsIwEENS_9allocatorIwEEEC1ESt16initializer_listIwE", "__WA_ZNSt3__212basic_stringIwNS_11char_traitsIwEENS_9allocatorIwEEEC1ESt16initializer_listIwERKS4_", "__WA_ZNSt3__212basic_stringIwNS_11char_traitsIwEENS_9allocatorIwEEED1Ev",
